

Microchip MPLAB XC8 Assembler V2.41 build 20230208172133 
                                                                                               Mon Jul 17 14:29:20 2023

Microchip MPLAB XC8 C Compiler v2.41 (Free license) build 20230208172133 Og1 
     1                           	processor	16F18877
     2                           	pagewidth 120
     3                           	opt	flic
     4                           	psect	stringtext1,global,class=STRCODE,delta=2,noexec
     5                           	psect	cinit,global,class=CODE,merge=1,delta=2
     6                           	psect	bssBANK0,global,class=BANK0,space=1,delta=1,noexec
     7                           	psect	cstackCOMMON,global,class=COMMON,space=1,delta=1,noexec
     8                           	psect	cstackBANK0,global,class=BANK0,space=1,delta=1,noexec
     9                           	psect	maintext,global,class=CODE,merge=1,split=1,delta=2
    10                           	psect	text1,local,class=CODE,merge=1,delta=2
    11                           	psect	text2,local,class=CODE,merge=1,delta=2
    12                           	psect	text3,local,class=CODE,merge=1,delta=2,group=1
    13                           	psect	text4,local,class=CODE,merge=1,delta=2,group=1
    14                           	psect	text5,local,class=CODE,merge=1,delta=2
    15                           	psect	text6,local,class=CODE,merge=1,delta=2
    16                           	psect	idloc,global,abs,ovrld,class=IDLOC,space=5,delta=2,noexec
    17                           	psect	config,global,abs,ovrld,class=CONFIG,space=4,delta=2,noexec
    18                           	dabs	1,0x7E,2
    19     0000                     
    20                           ; Generated 09/02/2023 GMT
    21                           ; 
    22                           ; Copyright © 2023, Microchip Technology Inc. and its subsidiaries ("Microchip")
    23                           ; All rights reserved.
    24                           ; 
    25                           ; This software is developed by Microchip Technology Inc. and its subsidiaries ("Microch
      +                          ip").
    26                           ; 
    27                           ; Redistribution and use in source and binary forms, with or without modification, are
    28                           ; permitted provided that the following conditions are met:
    29                           ; 
    30                           ;     1. Redistributions of source code must retain the above copyright notice, this lis
      +                          t of
    31                           ;        conditions and the following disclaimer.
    32                           ; 
    33                           ;     2. Redistributions in binary form must reproduce the above copyright notice, this 
      +                          list
    34                           ;        of conditions and the following disclaimer in the documentation and/or other
    35                           ;        materials provided with the distribution. Publication is not required when
    36                           ;        this file is used in an embedded application.
    37                           ; 
    38                           ;     3. Microchip's name may not be used to endorse or promote products derived from th
      +                          is
    39                           ;        software without specific prior written permission.
    40                           ; 
    41                           ; THIS SOFTWARE IS PROVIDED BY MICROCHIP "AS IS" AND ANY EXPRESS OR IMPLIED WARRANTIES,
    42                           ; INCLUDING, BUT NOT LIMITED TO, THE IMPLIED WARRANTIES OF MERCHANTABILITY AND FITNESS F
      +                          OR
    43                           ; PURPOSE ARE DISCLAIMED.  IN NO EVENT SHALL MICROCHIP BE LIABLE FOR ANY DIRECT, INDIREC
      +                          T,
    44                           ; INCIDENTAL, SPECIAL, EXEMPLARY, OR CONSEQUENTIAL DAMAGES (INCLUDING BUT NOT LIMITED TO
    45                           ; PROCUREMENT OF SUBSTITUTE GOODS OR SERVICES; LOSS OF USE, DATA OR PROFITS; OR BUSINESS
    46                           ; INTERRUPTION) HOWSOEVER CAUSED AND ON ANY THEORY OF LIABILITY, WHETHER IN CONTRACT, ST
      +                          RICT
    47                           ; LIABILITY, OR TORT (INCLUDING NEGLIGENCE OR OTHERWISE) ARISING IN ANY WAY OUT OF THE U
      +                          SE OF
    48                           ; THIS SOFTWARE, EVEN IF ADVISED OF THE POSSIBILITY OF SUCH DAMAGE.
    49                           ; 
    50                           ; 
    51                           ; Code-generator required, PIC16F18877 Definitions
    52                           ; 
    53                           ; SFR Addresses
    54     0000                     	;# 
    55     0001                     	;# 
    56     0002                     	;# 
    57     0003                     	;# 
    58     0004                     	;# 
    59     0005                     	;# 
    60     0006                     	;# 
    61     0007                     	;# 
    62     0008                     	;# 
    63     0009                     	;# 
    64     000A                     	;# 
    65     000B                     	;# 
    66     000C                     	;# 
    67     000D                     	;# 
    68     000E                     	;# 
    69     000F                     	;# 
    70     0010                     	;# 
    71     0011                     	;# 
    72     0012                     	;# 
    73     0013                     	;# 
    74     0014                     	;# 
    75     0015                     	;# 
    76     0016                     	;# 
    77     0017                     	;# 
    78     0018                     	;# 
    79     0019                     	;# 
    80     001A                     	;# 
    81     001C                     	;# 
    82     001C                     	;# 
    83     001D                     	;# 
    84     001D                     	;# 
    85     001E                     	;# 
    86     001F                     	;# 
    87     008C                     	;# 
    88     008C                     	;# 
    89     008D                     	;# 
    90     008E                     	;# 
    91     008E                     	;# 
    92     008F                     	;# 
    93     0090                     	;# 
    94     0090                     	;# 
    95     0091                     	;# 
    96     0093                     	;# 
    97     0094                     	;# 
    98     0095                     	;# 
    99     0096                     	;# 
   100     0097                     	;# 
   101     0098                     	;# 
   102     0099                     	;# 
   103     009A                     	;# 
   104     009B                     	;# 
   105     009C                     	;# 
   106     009D                     	;# 
   107     009E                     	;# 
   108     010C                     	;# 
   109     010D                     	;# 
   110     010E                     	;# 
   111     010E                     	;# 
   112     010F                     	;# 
   113     0110                     	;# 
   114     0110                     	;# 
   115     0111                     	;# 
   116     0112                     	;# 
   117     0112                     	;# 
   118     0113                     	;# 
   119     0114                     	;# 
   120     0114                     	;# 
   121     0115                     	;# 
   122     0116                     	;# 
   123     0116                     	;# 
   124     0117                     	;# 
   125     0119                     	;# 
   126     0119                     	;# 
   127     0119                     	;# 
   128     011A                     	;# 
   129     011A                     	;# 
   130     011A                     	;# 
   131     011B                     	;# 
   132     011B                     	;# 
   133     011B                     	;# 
   134     011B                     	;# 
   135     011B                     	;# 
   136     011C                     	;# 
   137     011C                     	;# 
   138     011C                     	;# 
   139     011D                     	;# 
   140     011D                     	;# 
   141     011D                     	;# 
   142     011E                     	;# 
   143     011E                     	;# 
   144     011E                     	;# 
   145     011F                     	;# 
   146     011F                     	;# 
   147     011F                     	;# 
   148     011F                     	;# 
   149     011F                     	;# 
   150     018C                     	;# 
   151     018D                     	;# 
   152     018E                     	;# 
   153     018F                     	;# 
   154     0190                     	;# 
   155     0191                     	;# 
   156     0192                     	;# 
   157     0196                     	;# 
   158     0197                     	;# 
   159     0198                     	;# 
   160     0199                     	;# 
   161     019A                     	;# 
   162     019B                     	;# 
   163     019C                     	;# 
   164     020C                     	;# 
   165     020C                     	;# 
   166     020D                     	;# 
   167     020E                     	;# 
   168     020F                     	;# 
   169     020F                     	;# 
   170     0210                     	;# 
   171     0210                     	;# 
   172     0211                     	;# 
   173     0211                     	;# 
   174     0212                     	;# 
   175     0212                     	;# 
   176     0213                     	;# 
   177     0214                     	;# 
   178     0215                     	;# 
   179     0215                     	;# 
   180     0216                     	;# 
   181     0216                     	;# 
   182     0217                     	;# 
   183     0217                     	;# 
   184     0218                     	;# 
   185     0218                     	;# 
   186     0219                     	;# 
   187     021A                     	;# 
   188     021B                     	;# 
   189     021B                     	;# 
   190     021C                     	;# 
   191     021C                     	;# 
   192     021D                     	;# 
   193     021D                     	;# 
   194     021E                     	;# 
   195     021F                     	;# 
   196     028C                     	;# 
   197     028C                     	;# 
   198     028D                     	;# 
   199     028D                     	;# 
   200     028E                     	;# 
   201     028F                     	;# 
   202     0290                     	;# 
   203     0290                     	;# 
   204     0291                     	;# 
   205     0292                     	;# 
   206     0292                     	;# 
   207     0293                     	;# 
   208     0293                     	;# 
   209     0294                     	;# 
   210     0295                     	;# 
   211     0296                     	;# 
   212     0296                     	;# 
   213     0297                     	;# 
   214     0298                     	;# 
   215     0298                     	;# 
   216     0299                     	;# 
   217     0299                     	;# 
   218     029A                     	;# 
   219     029B                     	;# 
   220     029C                     	;# 
   221     029C                     	;# 
   222     029D                     	;# 
   223     030C                     	;# 
   224     030C                     	;# 
   225     030D                     	;# 
   226     030E                     	;# 
   227     030F                     	;# 
   228     0310                     	;# 
   229     0310                     	;# 
   230     0311                     	;# 
   231     0312                     	;# 
   232     0313                     	;# 
   233     0314                     	;# 
   234     0314                     	;# 
   235     0315                     	;# 
   236     0316                     	;# 
   237     0317                     	;# 
   238     0318                     	;# 
   239     0318                     	;# 
   240     0319                     	;# 
   241     031A                     	;# 
   242     031B                     	;# 
   243     031C                     	;# 
   244     031C                     	;# 
   245     031D                     	;# 
   246     031E                     	;# 
   247     031F                     	;# 
   248     038C                     	;# 
   249     038C                     	;# 
   250     038D                     	;# 
   251     038E                     	;# 
   252     0390                     	;# 
   253     0390                     	;# 
   254     0391                     	;# 
   255     0392                     	;# 
   256     040C                     	;# 
   257     040D                     	;# 
   258     040E                     	;# 
   259     040F                     	;# 
   260     0410                     	;# 
   261     0411                     	;# 
   262     0416                     	;# 
   263     0416                     	;# 
   264     0417                     	;# 
   265     0418                     	;# 
   266     0418                     	;# 
   267     0419                     	;# 
   268     041A                     	;# 
   269     041A                     	;# 
   270     041B                     	;# 
   271     041C                     	;# 
   272     041C                     	;# 
   273     041D                     	;# 
   274     041E                     	;# 
   275     041F                     	;# 
   276     048C                     	;# 
   277     048C                     	;# 
   278     048D                     	;# 
   279     048E                     	;# 
   280     048F                     	;# 
   281     048F                     	;# 
   282     0490                     	;# 
   283     0491                     	;# 
   284     0492                     	;# 
   285     0492                     	;# 
   286     0493                     	;# 
   287     0494                     	;# 
   288     0495                     	;# 
   289     0495                     	;# 
   290     0496                     	;# 
   291     0497                     	;# 
   292     0498                     	;# 
   293     0499                     	;# 
   294     049A                     	;# 
   295     049B                     	;# 
   296     049C                     	;# 
   297     049D                     	;# 
   298     050C                     	;# 
   299     050C                     	;# 
   300     050D                     	;# 
   301     050E                     	;# 
   302     050F                     	;# 
   303     050F                     	;# 
   304     0510                     	;# 
   305     0511                     	;# 
   306     0512                     	;# 
   307     0512                     	;# 
   308     0513                     	;# 
   309     0514                     	;# 
   310     0515                     	;# 
   311     0515                     	;# 
   312     0516                     	;# 
   313     0517                     	;# 
   314     0518                     	;# 
   315     0519                     	;# 
   316     051A                     	;# 
   317     051B                     	;# 
   318     051C                     	;# 
   319     051D                     	;# 
   320     058C                     	;# 
   321     058C                     	;# 
   322     058D                     	;# 
   323     058E                     	;# 
   324     058F                     	;# 
   325     058F                     	;# 
   326     0590                     	;# 
   327     0591                     	;# 
   328     0592                     	;# 
   329     0593                     	;# 
   330     060C                     	;# 
   331     060D                     	;# 
   332     060E                     	;# 
   333     060F                     	;# 
   334     0610                     	;# 
   335     0611                     	;# 
   336     0612                     	;# 
   337     0613                     	;# 
   338     0614                     	;# 
   339     0616                     	;# 
   340     0617                     	;# 
   341     0618                     	;# 
   342     0619                     	;# 
   343     061A                     	;# 
   344     061B                     	;# 
   345     061C                     	;# 
   346     061D                     	;# 
   347     061E                     	;# 
   348     068C                     	;# 
   349     068D                     	;# 
   350     068E                     	;# 
   351     068F                     	;# 
   352     0690                     	;# 
   353     0691                     	;# 
   354     0692                     	;# 
   355     0693                     	;# 
   356     0694                     	;# 
   357     070C                     	;# 
   358     070D                     	;# 
   359     070E                     	;# 
   360     070F                     	;# 
   361     0710                     	;# 
   362     0711                     	;# 
   363     0712                     	;# 
   364     0713                     	;# 
   365     0714                     	;# 
   366     0716                     	;# 
   367     0717                     	;# 
   368     0718                     	;# 
   369     0719                     	;# 
   370     071A                     	;# 
   371     071B                     	;# 
   372     071C                     	;# 
   373     071D                     	;# 
   374     071E                     	;# 
   375     0796                     	;# 
   376     0797                     	;# 
   377     0798                     	;# 
   378     0799                     	;# 
   379     079A                     	;# 
   380     079B                     	;# 
   381     080C                     	;# 
   382     080D                     	;# 
   383     080E                     	;# 
   384     080F                     	;# 
   385     0810                     	;# 
   386     0811                     	;# 
   387     0812                     	;# 
   388     0813                     	;# 
   389     0814                     	;# 
   390     081A                     	;# 
   391     081B                     	;# 
   392     081C                     	;# 
   393     081D                     	;# 
   394     081E                     	;# 
   395     081F                     	;# 
   396     088C                     	;# 
   397     088D                     	;# 
   398     088E                     	;# 
   399     088F                     	;# 
   400     0890                     	;# 
   401     0891                     	;# 
   402     0892                     	;# 
   403     0893                     	;# 
   404     0895                     	;# 
   405     0896                     	;# 
   406     0897                     	;# 
   407     0898                     	;# 
   408     0899                     	;# 
   409     089A                     	;# 
   410     089B                     	;# 
   411     090C                     	;# 
   412     090E                     	;# 
   413     090F                     	;# 
   414     091F                     	;# 
   415     098F                     	;# 
   416     098F                     	;# 
   417     0990                     	;# 
   418     0991                     	;# 
   419     0992                     	;# 
   420     0993                     	;# 
   421     0994                     	;# 
   422     0995                     	;# 
   423     0996                     	;# 
   424     0997                     	;# 
   425     1E0F                     	;# 
   426     1E10                     	;# 
   427     1E11                     	;# 
   428     1E12                     	;# 
   429     1E13                     	;# 
   430     1E14                     	;# 
   431     1E15                     	;# 
   432     1E16                     	;# 
   433     1E17                     	;# 
   434     1E18                     	;# 
   435     1E19                     	;# 
   436     1E1A                     	;# 
   437     1E1B                     	;# 
   438     1E1C                     	;# 
   439     1E1D                     	;# 
   440     1E1E                     	;# 
   441     1E1F                     	;# 
   442     1E20                     	;# 
   443     1E21                     	;# 
   444     1E22                     	;# 
   445     1E23                     	;# 
   446     1E24                     	;# 
   447     1E25                     	;# 
   448     1E26                     	;# 
   449     1E27                     	;# 
   450     1E28                     	;# 
   451     1E29                     	;# 
   452     1E2A                     	;# 
   453     1E2B                     	;# 
   454     1E2C                     	;# 
   455     1E2D                     	;# 
   456     1E2E                     	;# 
   457     1E2F                     	;# 
   458     1E30                     	;# 
   459     1E31                     	;# 
   460     1E32                     	;# 
   461     1E33                     	;# 
   462     1E34                     	;# 
   463     1E35                     	;# 
   464     1E36                     	;# 
   465     1E37                     	;# 
   466     1E8F                     	;# 
   467     1E90                     	;# 
   468     1E91                     	;# 
   469     1E92                     	;# 
   470     1E93                     	;# 
   471     1E94                     	;# 
   472     1E95                     	;# 
   473     1E96                     	;# 
   474     1E97                     	;# 
   475     1E9C                     	;# 
   476     1E9D                     	;# 
   477     1E9E                     	;# 
   478     1EA1                     	;# 
   479     1EA2                     	;# 
   480     1EA3                     	;# 
   481     1EA4                     	;# 
   482     1EA5                     	;# 
   483     1EA9                     	;# 
   484     1EAA                     	;# 
   485     1EAB                     	;# 
   486     1EAC                     	;# 
   487     1EB1                     	;# 
   488     1EB2                     	;# 
   489     1EB3                     	;# 
   490     1EB8                     	;# 
   491     1EB9                     	;# 
   492     1EBA                     	;# 
   493     1EBB                     	;# 
   494     1EBC                     	;# 
   495     1EBD                     	;# 
   496     1EBE                     	;# 
   497     1EC3                     	;# 
   498     1EC5                     	;# 
   499     1EC6                     	;# 
   500     1EC7                     	;# 
   501     1EC8                     	;# 
   502     1EC9                     	;# 
   503     1ECA                     	;# 
   504     1ECB                     	;# 
   505     1ECC                     	;# 
   506     1F10                     	;# 
   507     1F11                     	;# 
   508     1F12                     	;# 
   509     1F13                     	;# 
   510     1F14                     	;# 
   511     1F15                     	;# 
   512     1F16                     	;# 
   513     1F17                     	;# 
   514     1F18                     	;# 
   515     1F19                     	;# 
   516     1F1A                     	;# 
   517     1F1B                     	;# 
   518     1F1C                     	;# 
   519     1F1D                     	;# 
   520     1F1E                     	;# 
   521     1F1F                     	;# 
   522     1F20                     	;# 
   523     1F21                     	;# 
   524     1F22                     	;# 
   525     1F23                     	;# 
   526     1F24                     	;# 
   527     1F25                     	;# 
   528     1F26                     	;# 
   529     1F27                     	;# 
   530     1F28                     	;# 
   531     1F29                     	;# 
   532     1F2A                     	;# 
   533     1F2B                     	;# 
   534     1F2C                     	;# 
   535     1F2D                     	;# 
   536     1F2E                     	;# 
   537     1F2F                     	;# 
   538     1F30                     	;# 
   539     1F31                     	;# 
   540     1F32                     	;# 
   541     1F38                     	;# 
   542     1F39                     	;# 
   543     1F3A                     	;# 
   544     1F3B                     	;# 
   545     1F3C                     	;# 
   546     1F3D                     	;# 
   547     1F3E                     	;# 
   548     1F3F                     	;# 
   549     1F40                     	;# 
   550     1F41                     	;# 
   551     1F43                     	;# 
   552     1F44                     	;# 
   553     1F45                     	;# 
   554     1F46                     	;# 
   555     1F47                     	;# 
   556     1F48                     	;# 
   557     1F49                     	;# 
   558     1F4A                     	;# 
   559     1F4B                     	;# 
   560     1F4C                     	;# 
   561     1F4E                     	;# 
   562     1F4F                     	;# 
   563     1F50                     	;# 
   564     1F51                     	;# 
   565     1F52                     	;# 
   566     1F53                     	;# 
   567     1F54                     	;# 
   568     1F55                     	;# 
   569     1F56                     	;# 
   570     1F57                     	;# 
   571     1F59                     	;# 
   572     1F5A                     	;# 
   573     1F5B                     	;# 
   574     1F5C                     	;# 
   575     1F5D                     	;# 
   576     1F61                     	;# 
   577     1F62                     	;# 
   578     1F64                     	;# 
   579     1F65                     	;# 
   580     1F66                     	;# 
   581     1F67                     	;# 
   582     1F68                     	;# 
   583     1F69                     	;# 
   584     1F6A                     	;# 
   585     1F6B                     	;# 
   586     1F6C                     	;# 
   587     1F6D                     	;# 
   588     1FE4                     	;# 
   589     1FE5                     	;# 
   590     1FE6                     	;# 
   591     1FE7                     	;# 
   592     1FE8                     	;# 
   593     1FE9                     	;# 
   594     1FEA                     	;# 
   595     1FEB                     	;# 
   596     1FED                     	;# 
   597     1FEE                     	;# 
   598     1FEF                     	;# 
   599     0000                     	;# 
   600     0001                     	;# 
   601     0002                     	;# 
   602     0003                     	;# 
   603     0004                     	;# 
   604     0005                     	;# 
   605     0006                     	;# 
   606     0007                     	;# 
   607     0008                     	;# 
   608     0009                     	;# 
   609     000A                     	;# 
   610     000B                     	;# 
   611     000C                     	;# 
   612     000D                     	;# 
   613     000E                     	;# 
   614     000F                     	;# 
   615     0010                     	;# 
   616     0011                     	;# 
   617     0012                     	;# 
   618     0013                     	;# 
   619     0014                     	;# 
   620     0015                     	;# 
   621     0016                     	;# 
   622     0017                     	;# 
   623     0018                     	;# 
   624     0019                     	;# 
   625     001A                     	;# 
   626     001C                     	;# 
   627     001C                     	;# 
   628     001D                     	;# 
   629     001D                     	;# 
   630     001E                     	;# 
   631     001F                     	;# 
   632     008C                     	;# 
   633     008C                     	;# 
   634     008D                     	;# 
   635     008E                     	;# 
   636     008E                     	;# 
   637     008F                     	;# 
   638     0090                     	;# 
   639     0090                     	;# 
   640     0091                     	;# 
   641     0093                     	;# 
   642     0094                     	;# 
   643     0095                     	;# 
   644     0096                     	;# 
   645     0097                     	;# 
   646     0098                     	;# 
   647     0099                     	;# 
   648     009A                     	;# 
   649     009B                     	;# 
   650     009C                     	;# 
   651     009D                     	;# 
   652     009E                     	;# 
   653     010C                     	;# 
   654     010D                     	;# 
   655     010E                     	;# 
   656     010E                     	;# 
   657     010F                     	;# 
   658     0110                     	;# 
   659     0110                     	;# 
   660     0111                     	;# 
   661     0112                     	;# 
   662     0112                     	;# 
   663     0113                     	;# 
   664     0114                     	;# 
   665     0114                     	;# 
   666     0115                     	;# 
   667     0116                     	;# 
   668     0116                     	;# 
   669     0117                     	;# 
   670     0119                     	;# 
   671     0119                     	;# 
   672     0119                     	;# 
   673     011A                     	;# 
   674     011A                     	;# 
   675     011A                     	;# 
   676     011B                     	;# 
   677     011B                     	;# 
   678     011B                     	;# 
   679     011B                     	;# 
   680     011B                     	;# 
   681     011C                     	;# 
   682     011C                     	;# 
   683     011C                     	;# 
   684     011D                     	;# 
   685     011D                     	;# 
   686     011D                     	;# 
   687     011E                     	;# 
   688     011E                     	;# 
   689     011E                     	;# 
   690     011F                     	;# 
   691     011F                     	;# 
   692     011F                     	;# 
   693     011F                     	;# 
   694     011F                     	;# 
   695     018C                     	;# 
   696     018D                     	;# 
   697     018E                     	;# 
   698     018F                     	;# 
   699     0190                     	;# 
   700     0191                     	;# 
   701     0192                     	;# 
   702     0196                     	;# 
   703     0197                     	;# 
   704     0198                     	;# 
   705     0199                     	;# 
   706     019A                     	;# 
   707     019B                     	;# 
   708     019C                     	;# 
   709     020C                     	;# 
   710     020C                     	;# 
   711     020D                     	;# 
   712     020E                     	;# 
   713     020F                     	;# 
   714     020F                     	;# 
   715     0210                     	;# 
   716     0210                     	;# 
   717     0211                     	;# 
   718     0211                     	;# 
   719     0212                     	;# 
   720     0212                     	;# 
   721     0213                     	;# 
   722     0214                     	;# 
   723     0215                     	;# 
   724     0215                     	;# 
   725     0216                     	;# 
   726     0216                     	;# 
   727     0217                     	;# 
   728     0217                     	;# 
   729     0218                     	;# 
   730     0218                     	;# 
   731     0219                     	;# 
   732     021A                     	;# 
   733     021B                     	;# 
   734     021B                     	;# 
   735     021C                     	;# 
   736     021C                     	;# 
   737     021D                     	;# 
   738     021D                     	;# 
   739     021E                     	;# 
   740     021F                     	;# 
   741     028C                     	;# 
   742     028C                     	;# 
   743     028D                     	;# 
   744     028D                     	;# 
   745     028E                     	;# 
   746     028F                     	;# 
   747     0290                     	;# 
   748     0290                     	;# 
   749     0291                     	;# 
   750     0292                     	;# 
   751     0292                     	;# 
   752     0293                     	;# 
   753     0293                     	;# 
   754     0294                     	;# 
   755     0295                     	;# 
   756     0296                     	;# 
   757     0296                     	;# 
   758     0297                     	;# 
   759     0298                     	;# 
   760     0298                     	;# 
   761     0299                     	;# 
   762     0299                     	;# 
   763     029A                     	;# 
   764     029B                     	;# 
   765     029C                     	;# 
   766     029C                     	;# 
   767     029D                     	;# 
   768     030C                     	;# 
   769     030C                     	;# 
   770     030D                     	;# 
   771     030E                     	;# 
   772     030F                     	;# 
   773     0310                     	;# 
   774     0310                     	;# 
   775     0311                     	;# 
   776     0312                     	;# 
   777     0313                     	;# 
   778     0314                     	;# 
   779     0314                     	;# 
   780     0315                     	;# 
   781     0316                     	;# 
   782     0317                     	;# 
   783     0318                     	;# 
   784     0318                     	;# 
   785     0319                     	;# 
   786     031A                     	;# 
   787     031B                     	;# 
   788     031C                     	;# 
   789     031C                     	;# 
   790     031D                     	;# 
   791     031E                     	;# 
   792     031F                     	;# 
   793     038C                     	;# 
   794     038C                     	;# 
   795     038D                     	;# 
   796     038E                     	;# 
   797     0390                     	;# 
   798     0390                     	;# 
   799     0391                     	;# 
   800     0392                     	;# 
   801     040C                     	;# 
   802     040D                     	;# 
   803     040E                     	;# 
   804     040F                     	;# 
   805     0410                     	;# 
   806     0411                     	;# 
   807     0416                     	;# 
   808     0416                     	;# 
   809     0417                     	;# 
   810     0418                     	;# 
   811     0418                     	;# 
   812     0419                     	;# 
   813     041A                     	;# 
   814     041A                     	;# 
   815     041B                     	;# 
   816     041C                     	;# 
   817     041C                     	;# 
   818     041D                     	;# 
   819     041E                     	;# 
   820     041F                     	;# 
   821     048C                     	;# 
   822     048C                     	;# 
   823     048D                     	;# 
   824     048E                     	;# 
   825     048F                     	;# 
   826     048F                     	;# 
   827     0490                     	;# 
   828     0491                     	;# 
   829     0492                     	;# 
   830     0492                     	;# 
   831     0493                     	;# 
   832     0494                     	;# 
   833     0495                     	;# 
   834     0495                     	;# 
   835     0496                     	;# 
   836     0497                     	;# 
   837     0498                     	;# 
   838     0499                     	;# 
   839     049A                     	;# 
   840     049B                     	;# 
   841     049C                     	;# 
   842     049D                     	;# 
   843     050C                     	;# 
   844     050C                     	;# 
   845     050D                     	;# 
   846     050E                     	;# 
   847     050F                     	;# 
   848     050F                     	;# 
   849     0510                     	;# 
   850     0511                     	;# 
   851     0512                     	;# 
   852     0512                     	;# 
   853     0513                     	;# 
   854     0514                     	;# 
   855     0515                     	;# 
   856     0515                     	;# 
   857     0516                     	;# 
   858     0517                     	;# 
   859     0518                     	;# 
   860     0519                     	;# 
   861     051A                     	;# 
   862     051B                     	;# 
   863     051C                     	;# 
   864     051D                     	;# 
   865     058C                     	;# 
   866     058C                     	;# 
   867     058D                     	;# 
   868     058E                     	;# 
   869     058F                     	;# 
   870     058F                     	;# 
   871     0590                     	;# 
   872     0591                     	;# 
   873     0592                     	;# 
   874     0593                     	;# 
   875     060C                     	;# 
   876     060D                     	;# 
   877     060E                     	;# 
   878     060F                     	;# 
   879     0610                     	;# 
   880     0611                     	;# 
   881     0612                     	;# 
   882     0613                     	;# 
   883     0614                     	;# 
   884     0616                     	;# 
   885     0617                     	;# 
   886     0618                     	;# 
   887     0619                     	;# 
   888     061A                     	;# 
   889     061B                     	;# 
   890     061C                     	;# 
   891     061D                     	;# 
   892     061E                     	;# 
   893     068C                     	;# 
   894     068D                     	;# 
   895     068E                     	;# 
   896     068F                     	;# 
   897     0690                     	;# 
   898     0691                     	;# 
   899     0692                     	;# 
   900     0693                     	;# 
   901     0694                     	;# 
   902     070C                     	;# 
   903     070D                     	;# 
   904     070E                     	;# 
   905     070F                     	;# 
   906     0710                     	;# 
   907     0711                     	;# 
   908     0712                     	;# 
   909     0713                     	;# 
   910     0714                     	;# 
   911     0716                     	;# 
   912     0717                     	;# 
   913     0718                     	;# 
   914     0719                     	;# 
   915     071A                     	;# 
   916     071B                     	;# 
   917     071C                     	;# 
   918     071D                     	;# 
   919     071E                     	;# 
   920     0796                     	;# 
   921     0797                     	;# 
   922     0798                     	;# 
   923     0799                     	;# 
   924     079A                     	;# 
   925     079B                     	;# 
   926     080C                     	;# 
   927     080D                     	;# 
   928     080E                     	;# 
   929     080F                     	;# 
   930     0810                     	;# 
   931     0811                     	;# 
   932     0812                     	;# 
   933     0813                     	;# 
   934     0814                     	;# 
   935     081A                     	;# 
   936     081B                     	;# 
   937     081C                     	;# 
   938     081D                     	;# 
   939     081E                     	;# 
   940     081F                     	;# 
   941     088C                     	;# 
   942     088D                     	;# 
   943     088E                     	;# 
   944     088F                     	;# 
   945     0890                     	;# 
   946     0891                     	;# 
   947     0892                     	;# 
   948     0893                     	;# 
   949     0895                     	;# 
   950     0896                     	;# 
   951     0897                     	;# 
   952     0898                     	;# 
   953     0899                     	;# 
   954     089A                     	;# 
   955     089B                     	;# 
   956     090C                     	;# 
   957     090E                     	;# 
   958     090F                     	;# 
   959     091F                     	;# 
   960     098F                     	;# 
   961     098F                     	;# 
   962     0990                     	;# 
   963     0991                     	;# 
   964     0992                     	;# 
   965     0993                     	;# 
   966     0994                     	;# 
   967     0995                     	;# 
   968     0996                     	;# 
   969     0997                     	;# 
   970     1E0F                     	;# 
   971     1E10                     	;# 
   972     1E11                     	;# 
   973     1E12                     	;# 
   974     1E13                     	;# 
   975     1E14                     	;# 
   976     1E15                     	;# 
   977     1E16                     	;# 
   978     1E17                     	;# 
   979     1E18                     	;# 
   980     1E19                     	;# 
   981     1E1A                     	;# 
   982     1E1B                     	;# 
   983     1E1C                     	;# 
   984     1E1D                     	;# 
   985     1E1E                     	;# 
   986     1E1F                     	;# 
   987     1E20                     	;# 
   988     1E21                     	;# 
   989     1E22                     	;# 
   990     1E23                     	;# 
   991     1E24                     	;# 
   992     1E25                     	;# 
   993     1E26                     	;# 
   994     1E27                     	;# 
   995     1E28                     	;# 
   996     1E29                     	;# 
   997     1E2A                     	;# 
   998     1E2B                     	;# 
   999     1E2C                     	;# 
  1000     1E2D                     	;# 
  1001     1E2E                     	;# 
  1002     1E2F                     	;# 
  1003     1E30                     	;# 
  1004     1E31                     	;# 
  1005     1E32                     	;# 
  1006     1E33                     	;# 
  1007     1E34                     	;# 
  1008     1E35                     	;# 
  1009     1E36                     	;# 
  1010     1E37                     	;# 
  1011     1E8F                     	;# 
  1012     1E90                     	;# 
  1013     1E91                     	;# 
  1014     1E92                     	;# 
  1015     1E93                     	;# 
  1016     1E94                     	;# 
  1017     1E95                     	;# 
  1018     1E96                     	;# 
  1019     1E97                     	;# 
  1020     1E9C                     	;# 
  1021     1E9D                     	;# 
  1022     1E9E                     	;# 
  1023     1EA1                     	;# 
  1024     1EA2                     	;# 
  1025     1EA3                     	;# 
  1026     1EA4                     	;# 
  1027     1EA5                     	;# 
  1028     1EA9                     	;# 
  1029     1EAA                     	;# 
  1030     1EAB                     	;# 
  1031     1EAC                     	;# 
  1032     1EB1                     	;# 
  1033     1EB2                     	;# 
  1034     1EB3                     	;# 
  1035     1EB8                     	;# 
  1036     1EB9                     	;# 
  1037     1EBA                     	;# 
  1038     1EBB                     	;# 
  1039     1EBC                     	;# 
  1040     1EBD                     	;# 
  1041     1EBE                     	;# 
  1042     1EC3                     	;# 
  1043     1EC5                     	;# 
  1044     1EC6                     	;# 
  1045     1EC7                     	;# 
  1046     1EC8                     	;# 
  1047     1EC9                     	;# 
  1048     1ECA                     	;# 
  1049     1ECB                     	;# 
  1050     1ECC                     	;# 
  1051     1F10                     	;# 
  1052     1F11                     	;# 
  1053     1F12                     	;# 
  1054     1F13                     	;# 
  1055     1F14                     	;# 
  1056     1F15                     	;# 
  1057     1F16                     	;# 
  1058     1F17                     	;# 
  1059     1F18                     	;# 
  1060     1F19                     	;# 
  1061     1F1A                     	;# 
  1062     1F1B                     	;# 
  1063     1F1C                     	;# 
  1064     1F1D                     	;# 
  1065     1F1E                     	;# 
  1066     1F1F                     	;# 
  1067     1F20                     	;# 
  1068     1F21                     	;# 
  1069     1F22                     	;# 
  1070     1F23                     	;# 
  1071     1F24                     	;# 
  1072     1F25                     	;# 
  1073     1F26                     	;# 
  1074     1F27                     	;# 
  1075     1F28                     	;# 
  1076     1F29                     	;# 
  1077     1F2A                     	;# 
  1078     1F2B                     	;# 
  1079     1F2C                     	;# 
  1080     1F2D                     	;# 
  1081     1F2E                     	;# 
  1082     1F2F                     	;# 
  1083     1F30                     	;# 
  1084     1F31                     	;# 
  1085     1F32                     	;# 
  1086     1F38                     	;# 
  1087     1F39                     	;# 
  1088     1F3A                     	;# 
  1089     1F3B                     	;# 
  1090     1F3C                     	;# 
  1091     1F3D                     	;# 
  1092     1F3E                     	;# 
  1093     1F3F                     	;# 
  1094     1F40                     	;# 
  1095     1F41                     	;# 
  1096     1F43                     	;# 
  1097     1F44                     	;# 
  1098     1F45                     	;# 
  1099     1F46                     	;# 
  1100     1F47                     	;# 
  1101     1F48                     	;# 
  1102     1F49                     	;# 
  1103     1F4A                     	;# 
  1104     1F4B                     	;# 
  1105     1F4C                     	;# 
  1106     1F4E                     	;# 
  1107     1F4F                     	;# 
  1108     1F50                     	;# 
  1109     1F51                     	;# 
  1110     1F52                     	;# 
  1111     1F53                     	;# 
  1112     1F54                     	;# 
  1113     1F55                     	;# 
  1114     1F56                     	;# 
  1115     1F57                     	;# 
  1116     1F59                     	;# 
  1117     1F5A                     	;# 
  1118     1F5B                     	;# 
  1119     1F5C                     	;# 
  1120     1F5D                     	;# 
  1121     1F61                     	;# 
  1122     1F62                     	;# 
  1123     1F64                     	;# 
  1124     1F65                     	;# 
  1125     1F66                     	;# 
  1126     1F67                     	;# 
  1127     1F68                     	;# 
  1128     1F69                     	;# 
  1129     1F6A                     	;# 
  1130     1F6B                     	;# 
  1131     1F6C                     	;# 
  1132     1F6D                     	;# 
  1133     1FE4                     	;# 
  1134     1FE5                     	;# 
  1135     1FE6                     	;# 
  1136     1FE7                     	;# 
  1137     1FE8                     	;# 
  1138     1FE9                     	;# 
  1139     1FEA                     	;# 
  1140     1FEB                     	;# 
  1141     1FED                     	;# 
  1142     1FEE                     	;# 
  1143     1FEF                     	;# 
  1144     0000                     	;# 
  1145     0001                     	;# 
  1146     0002                     	;# 
  1147     0003                     	;# 
  1148     0004                     	;# 
  1149     0005                     	;# 
  1150     0006                     	;# 
  1151     0007                     	;# 
  1152     0008                     	;# 
  1153     0009                     	;# 
  1154     000A                     	;# 
  1155     000B                     	;# 
  1156     000C                     	;# 
  1157     000D                     	;# 
  1158     000E                     	;# 
  1159     000F                     	;# 
  1160     0010                     	;# 
  1161     0011                     	;# 
  1162     0012                     	;# 
  1163     0013                     	;# 
  1164     0014                     	;# 
  1165     0015                     	;# 
  1166     0016                     	;# 
  1167     0017                     	;# 
  1168     0018                     	;# 
  1169     0019                     	;# 
  1170     001A                     	;# 
  1171     001C                     	;# 
  1172     001C                     	;# 
  1173     001D                     	;# 
  1174     001D                     	;# 
  1175     001E                     	;# 
  1176     001F                     	;# 
  1177     008C                     	;# 
  1178     008C                     	;# 
  1179     008D                     	;# 
  1180     008E                     	;# 
  1181     008E                     	;# 
  1182     008F                     	;# 
  1183     0090                     	;# 
  1184     0090                     	;# 
  1185     0091                     	;# 
  1186     0093                     	;# 
  1187     0094                     	;# 
  1188     0095                     	;# 
  1189     0096                     	;# 
  1190     0097                     	;# 
  1191     0098                     	;# 
  1192     0099                     	;# 
  1193     009A                     	;# 
  1194     009B                     	;# 
  1195     009C                     	;# 
  1196     009D                     	;# 
  1197     009E                     	;# 
  1198     010C                     	;# 
  1199     010D                     	;# 
  1200     010E                     	;# 
  1201     010E                     	;# 
  1202     010F                     	;# 
  1203     0110                     	;# 
  1204     0110                     	;# 
  1205     0111                     	;# 
  1206     0112                     	;# 
  1207     0112                     	;# 
  1208     0113                     	;# 
  1209     0114                     	;# 
  1210     0114                     	;# 
  1211     0115                     	;# 
  1212     0116                     	;# 
  1213     0116                     	;# 
  1214     0117                     	;# 
  1215     0119                     	;# 
  1216     0119                     	;# 
  1217     0119                     	;# 
  1218     011A                     	;# 
  1219     011A                     	;# 
  1220     011A                     	;# 
  1221     011B                     	;# 
  1222     011B                     	;# 
  1223     011B                     	;# 
  1224     011B                     	;# 
  1225     011B                     	;# 
  1226     011C                     	;# 
  1227     011C                     	;# 
  1228     011C                     	;# 
  1229     011D                     	;# 
  1230     011D                     	;# 
  1231     011D                     	;# 
  1232     011E                     	;# 
  1233     011E                     	;# 
  1234     011E                     	;# 
  1235     011F                     	;# 
  1236     011F                     	;# 
  1237     011F                     	;# 
  1238     011F                     	;# 
  1239     011F                     	;# 
  1240     018C                     	;# 
  1241     018D                     	;# 
  1242     018E                     	;# 
  1243     018F                     	;# 
  1244     0190                     	;# 
  1245     0191                     	;# 
  1246     0192                     	;# 
  1247     0196                     	;# 
  1248     0197                     	;# 
  1249     0198                     	;# 
  1250     0199                     	;# 
  1251     019A                     	;# 
  1252     019B                     	;# 
  1253     019C                     	;# 
  1254     020C                     	;# 
  1255     020C                     	;# 
  1256     020D                     	;# 
  1257     020E                     	;# 
  1258     020F                     	;# 
  1259     020F                     	;# 
  1260     0210                     	;# 
  1261     0210                     	;# 
  1262     0211                     	;# 
  1263     0211                     	;# 
  1264     0212                     	;# 
  1265     0212                     	;# 
  1266     0213                     	;# 
  1267     0214                     	;# 
  1268     0215                     	;# 
  1269     0215                     	;# 
  1270     0216                     	;# 
  1271     0216                     	;# 
  1272     0217                     	;# 
  1273     0217                     	;# 
  1274     0218                     	;# 
  1275     0218                     	;# 
  1276     0219                     	;# 
  1277     021A                     	;# 
  1278     021B                     	;# 
  1279     021B                     	;# 
  1280     021C                     	;# 
  1281     021C                     	;# 
  1282     021D                     	;# 
  1283     021D                     	;# 
  1284     021E                     	;# 
  1285     021F                     	;# 
  1286     028C                     	;# 
  1287     028C                     	;# 
  1288     028D                     	;# 
  1289     028D                     	;# 
  1290     028E                     	;# 
  1291     028F                     	;# 
  1292     0290                     	;# 
  1293     0290                     	;# 
  1294     0291                     	;# 
  1295     0292                     	;# 
  1296     0292                     	;# 
  1297     0293                     	;# 
  1298     0293                     	;# 
  1299     0294                     	;# 
  1300     0295                     	;# 
  1301     0296                     	;# 
  1302     0296                     	;# 
  1303     0297                     	;# 
  1304     0298                     	;# 
  1305     0298                     	;# 
  1306     0299                     	;# 
  1307     0299                     	;# 
  1308     029A                     	;# 
  1309     029B                     	;# 
  1310     029C                     	;# 
  1311     029C                     	;# 
  1312     029D                     	;# 
  1313     030C                     	;# 
  1314     030C                     	;# 
  1315     030D                     	;# 
  1316     030E                     	;# 
  1317     030F                     	;# 
  1318     0310                     	;# 
  1319     0310                     	;# 
  1320     0311                     	;# 
  1321     0312                     	;# 
  1322     0313                     	;# 
  1323     0314                     	;# 
  1324     0314                     	;# 
  1325     0315                     	;# 
  1326     0316                     	;# 
  1327     0317                     	;# 
  1328     0318                     	;# 
  1329     0318                     	;# 
  1330     0319                     	;# 
  1331     031A                     	;# 
  1332     031B                     	;# 
  1333     031C                     	;# 
  1334     031C                     	;# 
  1335     031D                     	;# 
  1336     031E                     	;# 
  1337     031F                     	;# 
  1338     038C                     	;# 
  1339     038C                     	;# 
  1340     038D                     	;# 
  1341     038E                     	;# 
  1342     0390                     	;# 
  1343     0390                     	;# 
  1344     0391                     	;# 
  1345     0392                     	;# 
  1346     040C                     	;# 
  1347     040D                     	;# 
  1348     040E                     	;# 
  1349     040F                     	;# 
  1350     0410                     	;# 
  1351     0411                     	;# 
  1352     0416                     	;# 
  1353     0416                     	;# 
  1354     0417                     	;# 
  1355     0418                     	;# 
  1356     0418                     	;# 
  1357     0419                     	;# 
  1358     041A                     	;# 
  1359     041A                     	;# 
  1360     041B                     	;# 
  1361     041C                     	;# 
  1362     041C                     	;# 
  1363     041D                     	;# 
  1364     041E                     	;# 
  1365     041F                     	;# 
  1366     048C                     	;# 
  1367     048C                     	;# 
  1368     048D                     	;# 
  1369     048E                     	;# 
  1370     048F                     	;# 
  1371     048F                     	;# 
  1372     0490                     	;# 
  1373     0491                     	;# 
  1374     0492                     	;# 
  1375     0492                     	;# 
  1376     0493                     	;# 
  1377     0494                     	;# 
  1378     0495                     	;# 
  1379     0495                     	;# 
  1380     0496                     	;# 
  1381     0497                     	;# 
  1382     0498                     	;# 
  1383     0499                     	;# 
  1384     049A                     	;# 
  1385     049B                     	;# 
  1386     049C                     	;# 
  1387     049D                     	;# 
  1388     050C                     	;# 
  1389     050C                     	;# 
  1390     050D                     	;# 
  1391     050E                     	;# 
  1392     050F                     	;# 
  1393     050F                     	;# 
  1394     0510                     	;# 
  1395     0511                     	;# 
  1396     0512                     	;# 
  1397     0512                     	;# 
  1398     0513                     	;# 
  1399     0514                     	;# 
  1400     0515                     	;# 
  1401     0515                     	;# 
  1402     0516                     	;# 
  1403     0517                     	;# 
  1404     0518                     	;# 
  1405     0519                     	;# 
  1406     051A                     	;# 
  1407     051B                     	;# 
  1408     051C                     	;# 
  1409     051D                     	;# 
  1410     058C                     	;# 
  1411     058C                     	;# 
  1412     058D                     	;# 
  1413     058E                     	;# 
  1414     058F                     	;# 
  1415     058F                     	;# 
  1416     0590                     	;# 
  1417     0591                     	;# 
  1418     0592                     	;# 
  1419     0593                     	;# 
  1420     060C                     	;# 
  1421     060D                     	;# 
  1422     060E                     	;# 
  1423     060F                     	;# 
  1424     0610                     	;# 
  1425     0611                     	;# 
  1426     0612                     	;# 
  1427     0613                     	;# 
  1428     0614                     	;# 
  1429     0616                     	;# 
  1430     0617                     	;# 
  1431     0618                     	;# 
  1432     0619                     	;# 
  1433     061A                     	;# 
  1434     061B                     	;# 
  1435     061C                     	;# 
  1436     061D                     	;# 
  1437     061E                     	;# 
  1438     068C                     	;# 
  1439     068D                     	;# 
  1440     068E                     	;# 
  1441     068F                     	;# 
  1442     0690                     	;# 
  1443     0691                     	;# 
  1444     0692                     	;# 
  1445     0693                     	;# 
  1446     0694                     	;# 
  1447     070C                     	;# 
  1448     070D                     	;# 
  1449     070E                     	;# 
  1450     070F                     	;# 
  1451     0710                     	;# 
  1452     0711                     	;# 
  1453     0712                     	;# 
  1454     0713                     	;# 
  1455     0714                     	;# 
  1456     0716                     	;# 
  1457     0717                     	;# 
  1458     0718                     	;# 
  1459     0719                     	;# 
  1460     071A                     	;# 
  1461     071B                     	;# 
  1462     071C                     	;# 
  1463     071D                     	;# 
  1464     071E                     	;# 
  1465     0796                     	;# 
  1466     0797                     	;# 
  1467     0798                     	;# 
  1468     0799                     	;# 
  1469     079A                     	;# 
  1470     079B                     	;# 
  1471     080C                     	;# 
  1472     080D                     	;# 
  1473     080E                     	;# 
  1474     080F                     	;# 
  1475     0810                     	;# 
  1476     0811                     	;# 
  1477     0812                     	;# 
  1478     0813                     	;# 
  1479     0814                     	;# 
  1480     081A                     	;# 
  1481     081B                     	;# 
  1482     081C                     	;# 
  1483     081D                     	;# 
  1484     081E                     	;# 
  1485     081F                     	;# 
  1486     088C                     	;# 
  1487     088D                     	;# 
  1488     088E                     	;# 
  1489     088F                     	;# 
  1490     0890                     	;# 
  1491     0891                     	;# 
  1492     0892                     	;# 
  1493     0893                     	;# 
  1494     0895                     	;# 
  1495     0896                     	;# 
  1496     0897                     	;# 
  1497     0898                     	;# 
  1498     0899                     	;# 
  1499     089A                     	;# 
  1500     089B                     	;# 
  1501     090C                     	;# 
  1502     090E                     	;# 
  1503     090F                     	;# 
  1504     091F                     	;# 
  1505     098F                     	;# 
  1506     098F                     	;# 
  1507     0990                     	;# 
  1508     0991                     	;# 
  1509     0992                     	;# 
  1510     0993                     	;# 
  1511     0994                     	;# 
  1512     0995                     	;# 
  1513     0996                     	;# 
  1514     0997                     	;# 
  1515     1E0F                     	;# 
  1516     1E10                     	;# 
  1517     1E11                     	;# 
  1518     1E12                     	;# 
  1519     1E13                     	;# 
  1520     1E14                     	;# 
  1521     1E15                     	;# 
  1522     1E16                     	;# 
  1523     1E17                     	;# 
  1524     1E18                     	;# 
  1525     1E19                     	;# 
  1526     1E1A                     	;# 
  1527     1E1B                     	;# 
  1528     1E1C                     	;# 
  1529     1E1D                     	;# 
  1530     1E1E                     	;# 
  1531     1E1F                     	;# 
  1532     1E20                     	;# 
  1533     1E21                     	;# 
  1534     1E22                     	;# 
  1535     1E23                     	;# 
  1536     1E24                     	;# 
  1537     1E25                     	;# 
  1538     1E26                     	;# 
  1539     1E27                     	;# 
  1540     1E28                     	;# 
  1541     1E29                     	;# 
  1542     1E2A                     	;# 
  1543     1E2B                     	;# 
  1544     1E2C                     	;# 
  1545     1E2D                     	;# 
  1546     1E2E                     	;# 
  1547     1E2F                     	;# 
  1548     1E30                     	;# 
  1549     1E31                     	;# 
  1550     1E32                     	;# 
  1551     1E33                     	;# 
  1552     1E34                     	;# 
  1553     1E35                     	;# 
  1554     1E36                     	;# 
  1555     1E37                     	;# 
  1556     1E8F                     	;# 
  1557     1E90                     	;# 
  1558     1E91                     	;# 
  1559     1E92                     	;# 
  1560     1E93                     	;# 
  1561     1E94                     	;# 
  1562     1E95                     	;# 
  1563     1E96                     	;# 
  1564     1E97                     	;# 
  1565     1E9C                     	;# 
  1566     1E9D                     	;# 
  1567     1E9E                     	;# 
  1568     1EA1                     	;# 
  1569     1EA2                     	;# 
  1570     1EA3                     	;# 
  1571     1EA4                     	;# 
  1572     1EA5                     	;# 
  1573     1EA9                     	;# 
  1574     1EAA                     	;# 
  1575     1EAB                     	;# 
  1576     1EAC                     	;# 
  1577     1EB1                     	;# 
  1578     1EB2                     	;# 
  1579     1EB3                     	;# 
  1580     1EB8                     	;# 
  1581     1EB9                     	;# 
  1582     1EBA                     	;# 
  1583     1EBB                     	;# 
  1584     1EBC                     	;# 
  1585     1EBD                     	;# 
  1586     1EBE                     	;# 
  1587     1EC3                     	;# 
  1588     1EC5                     	;# 
  1589     1EC6                     	;# 
  1590     1EC7                     	;# 
  1591     1EC8                     	;# 
  1592     1EC9                     	;# 
  1593     1ECA                     	;# 
  1594     1ECB                     	;# 
  1595     1ECC                     	;# 
  1596     1F10                     	;# 
  1597     1F11                     	;# 
  1598     1F12                     	;# 
  1599     1F13                     	;# 
  1600     1F14                     	;# 
  1601     1F15                     	;# 
  1602     1F16                     	;# 
  1603     1F17                     	;# 
  1604     1F18                     	;# 
  1605     1F19                     	;# 
  1606     1F1A                     	;# 
  1607     1F1B                     	;# 
  1608     1F1C                     	;# 
  1609     1F1D                     	;# 
  1610     1F1E                     	;# 
  1611     1F1F                     	;# 
  1612     1F20                     	;# 
  1613     1F21                     	;# 
  1614     1F22                     	;# 
  1615     1F23                     	;# 
  1616     1F24                     	;# 
  1617     1F25                     	;# 
  1618     1F26                     	;# 
  1619     1F27                     	;# 
  1620     1F28                     	;# 
  1621     1F29                     	;# 
  1622     1F2A                     	;# 
  1623     1F2B                     	;# 
  1624     1F2C                     	;# 
  1625     1F2D                     	;# 
  1626     1F2E                     	;# 
  1627     1F2F                     	;# 
  1628     1F30                     	;# 
  1629     1F31                     	;# 
  1630     1F32                     	;# 
  1631     1F38                     	;# 
  1632     1F39                     	;# 
  1633     1F3A                     	;# 
  1634     1F3B                     	;# 
  1635     1F3C                     	;# 
  1636     1F3D                     	;# 
  1637     1F3E                     	;# 
  1638     1F3F                     	;# 
  1639     1F40                     	;# 
  1640     1F41                     	;# 
  1641     1F43                     	;# 
  1642     1F44                     	;# 
  1643     1F45                     	;# 
  1644     1F46                     	;# 
  1645     1F47                     	;# 
  1646     1F48                     	;# 
  1647     1F49                     	;# 
  1648     1F4A                     	;# 
  1649     1F4B                     	;# 
  1650     1F4C                     	;# 
  1651     1F4E                     	;# 
  1652     1F4F                     	;# 
  1653     1F50                     	;# 
  1654     1F51                     	;# 
  1655     1F52                     	;# 
  1656     1F53                     	;# 
  1657     1F54                     	;# 
  1658     1F55                     	;# 
  1659     1F56                     	;# 
  1660     1F57                     	;# 
  1661     1F59                     	;# 
  1662     1F5A                     	;# 
  1663     1F5B                     	;# 
  1664     1F5C                     	;# 
  1665     1F5D                     	;# 
  1666     1F61                     	;# 
  1667     1F62                     	;# 
  1668     1F64                     	;# 
  1669     1F65                     	;# 
  1670     1F66                     	;# 
  1671     1F67                     	;# 
  1672     1F68                     	;# 
  1673     1F69                     	;# 
  1674     1F6A                     	;# 
  1675     1F6B                     	;# 
  1676     1F6C                     	;# 
  1677     1F6D                     	;# 
  1678     1FE4                     	;# 
  1679     1FE5                     	;# 
  1680     1FE6                     	;# 
  1681     1FE7                     	;# 
  1682     1FE8                     	;# 
  1683     1FE9                     	;# 
  1684     1FEA                     	;# 
  1685     1FEB                     	;# 
  1686     1FED                     	;# 
  1687     1FEE                     	;# 
  1688     1FEF                     	;# 
  1689     0000                     	;# 
  1690     0001                     	;# 
  1691     0002                     	;# 
  1692     0003                     	;# 
  1693     0004                     	;# 
  1694     0005                     	;# 
  1695     0006                     	;# 
  1696     0007                     	;# 
  1697     0008                     	;# 
  1698     0009                     	;# 
  1699     000A                     	;# 
  1700     000B                     	;# 
  1701     000C                     	;# 
  1702     000D                     	;# 
  1703     000E                     	;# 
  1704     000F                     	;# 
  1705     0010                     	;# 
  1706     0011                     	;# 
  1707     0012                     	;# 
  1708     0013                     	;# 
  1709     0014                     	;# 
  1710     0015                     	;# 
  1711     0016                     	;# 
  1712     0017                     	;# 
  1713     0018                     	;# 
  1714     0019                     	;# 
  1715     001A                     	;# 
  1716     001C                     	;# 
  1717     001C                     	;# 
  1718     001D                     	;# 
  1719     001D                     	;# 
  1720     001E                     	;# 
  1721     001F                     	;# 
  1722     008C                     	;# 
  1723     008C                     	;# 
  1724     008D                     	;# 
  1725     008E                     	;# 
  1726     008E                     	;# 
  1727     008F                     	;# 
  1728     0090                     	;# 
  1729     0090                     	;# 
  1730     0091                     	;# 
  1731     0093                     	;# 
  1732     0094                     	;# 
  1733     0095                     	;# 
  1734     0096                     	;# 
  1735     0097                     	;# 
  1736     0098                     	;# 
  1737     0099                     	;# 
  1738     009A                     	;# 
  1739     009B                     	;# 
  1740     009C                     	;# 
  1741     009D                     	;# 
  1742     009E                     	;# 
  1743     010C                     	;# 
  1744     010D                     	;# 
  1745     010E                     	;# 
  1746     010E                     	;# 
  1747     010F                     	;# 
  1748     0110                     	;# 
  1749     0110                     	;# 
  1750     0111                     	;# 
  1751     0112                     	;# 
  1752     0112                     	;# 
  1753     0113                     	;# 
  1754     0114                     	;# 
  1755     0114                     	;# 
  1756     0115                     	;# 
  1757     0116                     	;# 
  1758     0116                     	;# 
  1759     0117                     	;# 
  1760     0119                     	;# 
  1761     0119                     	;# 
  1762     0119                     	;# 
  1763     011A                     	;# 
  1764     011A                     	;# 
  1765     011A                     	;# 
  1766     011B                     	;# 
  1767     011B                     	;# 
  1768     011B                     	;# 
  1769     011B                     	;# 
  1770     011B                     	;# 
  1771     011C                     	;# 
  1772     011C                     	;# 
  1773     011C                     	;# 
  1774     011D                     	;# 
  1775     011D                     	;# 
  1776     011D                     	;# 
  1777     011E                     	;# 
  1778     011E                     	;# 
  1779     011E                     	;# 
  1780     011F                     	;# 
  1781     011F                     	;# 
  1782     011F                     	;# 
  1783     011F                     	;# 
  1784     011F                     	;# 
  1785     018C                     	;# 
  1786     018D                     	;# 
  1787     018E                     	;# 
  1788     018F                     	;# 
  1789     0190                     	;# 
  1790     0191                     	;# 
  1791     0192                     	;# 
  1792     0196                     	;# 
  1793     0197                     	;# 
  1794     0198                     	;# 
  1795     0199                     	;# 
  1796     019A                     	;# 
  1797     019B                     	;# 
  1798     019C                     	;# 
  1799     020C                     	;# 
  1800     020C                     	;# 
  1801     020D                     	;# 
  1802     020E                     	;# 
  1803     020F                     	;# 
  1804     020F                     	;# 
  1805     0210                     	;# 
  1806     0210                     	;# 
  1807     0211                     	;# 
  1808     0211                     	;# 
  1809     0212                     	;# 
  1810     0212                     	;# 
  1811     0213                     	;# 
  1812     0214                     	;# 
  1813     0215                     	;# 
  1814     0215                     	;# 
  1815     0216                     	;# 
  1816     0216                     	;# 
  1817     0217                     	;# 
  1818     0217                     	;# 
  1819     0218                     	;# 
  1820     0218                     	;# 
  1821     0219                     	;# 
  1822     021A                     	;# 
  1823     021B                     	;# 
  1824     021B                     	;# 
  1825     021C                     	;# 
  1826     021C                     	;# 
  1827     021D                     	;# 
  1828     021D                     	;# 
  1829     021E                     	;# 
  1830     021F                     	;# 
  1831     028C                     	;# 
  1832     028C                     	;# 
  1833     028D                     	;# 
  1834     028D                     	;# 
  1835     028E                     	;# 
  1836     028F                     	;# 
  1837     0290                     	;# 
  1838     0290                     	;# 
  1839     0291                     	;# 
  1840     0292                     	;# 
  1841     0292                     	;# 
  1842     0293                     	;# 
  1843     0293                     	;# 
  1844     0294                     	;# 
  1845     0295                     	;# 
  1846     0296                     	;# 
  1847     0296                     	;# 
  1848     0297                     	;# 
  1849     0298                     	;# 
  1850     0298                     	;# 
  1851     0299                     	;# 
  1852     0299                     	;# 
  1853     029A                     	;# 
  1854     029B                     	;# 
  1855     029C                     	;# 
  1856     029C                     	;# 
  1857     029D                     	;# 
  1858     030C                     	;# 
  1859     030C                     	;# 
  1860     030D                     	;# 
  1861     030E                     	;# 
  1862     030F                     	;# 
  1863     0310                     	;# 
  1864     0310                     	;# 
  1865     0311                     	;# 
  1866     0312                     	;# 
  1867     0313                     	;# 
  1868     0314                     	;# 
  1869     0314                     	;# 
  1870     0315                     	;# 
  1871     0316                     	;# 
  1872     0317                     	;# 
  1873     0318                     	;# 
  1874     0318                     	;# 
  1875     0319                     	;# 
  1876     031A                     	;# 
  1877     031B                     	;# 
  1878     031C                     	;# 
  1879     031C                     	;# 
  1880     031D                     	;# 
  1881     031E                     	;# 
  1882     031F                     	;# 
  1883     038C                     	;# 
  1884     038C                     	;# 
  1885     038D                     	;# 
  1886     038E                     	;# 
  1887     0390                     	;# 
  1888     0390                     	;# 
  1889     0391                     	;# 
  1890     0392                     	;# 
  1891     040C                     	;# 
  1892     040D                     	;# 
  1893     040E                     	;# 
  1894     040F                     	;# 
  1895     0410                     	;# 
  1896     0411                     	;# 
  1897     0416                     	;# 
  1898     0416                     	;# 
  1899     0417                     	;# 
  1900     0418                     	;# 
  1901     0418                     	;# 
  1902     0419                     	;# 
  1903     041A                     	;# 
  1904     041A                     	;# 
  1905     041B                     	;# 
  1906     041C                     	;# 
  1907     041C                     	;# 
  1908     041D                     	;# 
  1909     041E                     	;# 
  1910     041F                     	;# 
  1911     048C                     	;# 
  1912     048C                     	;# 
  1913     048D                     	;# 
  1914     048E                     	;# 
  1915     048F                     	;# 
  1916     048F                     	;# 
  1917     0490                     	;# 
  1918     0491                     	;# 
  1919     0492                     	;# 
  1920     0492                     	;# 
  1921     0493                     	;# 
  1922     0494                     	;# 
  1923     0495                     	;# 
  1924     0495                     	;# 
  1925     0496                     	;# 
  1926     0497                     	;# 
  1927     0498                     	;# 
  1928     0499                     	;# 
  1929     049A                     	;# 
  1930     049B                     	;# 
  1931     049C                     	;# 
  1932     049D                     	;# 
  1933     050C                     	;# 
  1934     050C                     	;# 
  1935     050D                     	;# 
  1936     050E                     	;# 
  1937     050F                     	;# 
  1938     050F                     	;# 
  1939     0510                     	;# 
  1940     0511                     	;# 
  1941     0512                     	;# 
  1942     0512                     	;# 
  1943     0513                     	;# 
  1944     0514                     	;# 
  1945     0515                     	;# 
  1946     0515                     	;# 
  1947     0516                     	;# 
  1948     0517                     	;# 
  1949     0518                     	;# 
  1950     0519                     	;# 
  1951     051A                     	;# 
  1952     051B                     	;# 
  1953     051C                     	;# 
  1954     051D                     	;# 
  1955     058C                     	;# 
  1956     058C                     	;# 
  1957     058D                     	;# 
  1958     058E                     	;# 
  1959     058F                     	;# 
  1960     058F                     	;# 
  1961     0590                     	;# 
  1962     0591                     	;# 
  1963     0592                     	;# 
  1964     0593                     	;# 
  1965     060C                     	;# 
  1966     060D                     	;# 
  1967     060E                     	;# 
  1968     060F                     	;# 
  1969     0610                     	;# 
  1970     0611                     	;# 
  1971     0612                     	;# 
  1972     0613                     	;# 
  1973     0614                     	;# 
  1974     0616                     	;# 
  1975     0617                     	;# 
  1976     0618                     	;# 
  1977     0619                     	;# 
  1978     061A                     	;# 
  1979     061B                     	;# 
  1980     061C                     	;# 
  1981     061D                     	;# 
  1982     061E                     	;# 
  1983     068C                     	;# 
  1984     068D                     	;# 
  1985     068E                     	;# 
  1986     068F                     	;# 
  1987     0690                     	;# 
  1988     0691                     	;# 
  1989     0692                     	;# 
  1990     0693                     	;# 
  1991     0694                     	;# 
  1992     070C                     	;# 
  1993     070D                     	;# 
  1994     070E                     	;# 
  1995     070F                     	;# 
  1996     0710                     	;# 
  1997     0711                     	;# 
  1998     0712                     	;# 
  1999     0713                     	;# 
  2000     0714                     	;# 
  2001     0716                     	;# 
  2002     0717                     	;# 
  2003     0718                     	;# 
  2004     0719                     	;# 
  2005     071A                     	;# 
  2006     071B                     	;# 
  2007     071C                     	;# 
  2008     071D                     	;# 
  2009     071E                     	;# 
  2010     0796                     	;# 
  2011     0797                     	;# 
  2012     0798                     	;# 
  2013     0799                     	;# 
  2014     079A                     	;# 
  2015     079B                     	;# 
  2016     080C                     	;# 
  2017     080D                     	;# 
  2018     080E                     	;# 
  2019     080F                     	;# 
  2020     0810                     	;# 
  2021     0811                     	;# 
  2022     0812                     	;# 
  2023     0813                     	;# 
  2024     0814                     	;# 
  2025     081A                     	;# 
  2026     081B                     	;# 
  2027     081C                     	;# 
  2028     081D                     	;# 
  2029     081E                     	;# 
  2030     081F                     	;# 
  2031     088C                     	;# 
  2032     088D                     	;# 
  2033     088E                     	;# 
  2034     088F                     	;# 
  2035     0890                     	;# 
  2036     0891                     	;# 
  2037     0892                     	;# 
  2038     0893                     	;# 
  2039     0895                     	;# 
  2040     0896                     	;# 
  2041     0897                     	;# 
  2042     0898                     	;# 
  2043     0899                     	;# 
  2044     089A                     	;# 
  2045     089B                     	;# 
  2046     090C                     	;# 
  2047     090E                     	;# 
  2048     090F                     	;# 
  2049     091F                     	;# 
  2050     098F                     	;# 
  2051     098F                     	;# 
  2052     0990                     	;# 
  2053     0991                     	;# 
  2054     0992                     	;# 
  2055     0993                     	;# 
  2056     0994                     	;# 
  2057     0995                     	;# 
  2058     0996                     	;# 
  2059     0997                     	;# 
  2060     1E0F                     	;# 
  2061     1E10                     	;# 
  2062     1E11                     	;# 
  2063     1E12                     	;# 
  2064     1E13                     	;# 
  2065     1E14                     	;# 
  2066     1E15                     	;# 
  2067     1E16                     	;# 
  2068     1E17                     	;# 
  2069     1E18                     	;# 
  2070     1E19                     	;# 
  2071     1E1A                     	;# 
  2072     1E1B                     	;# 
  2073     1E1C                     	;# 
  2074     1E1D                     	;# 
  2075     1E1E                     	;# 
  2076     1E1F                     	;# 
  2077     1E20                     	;# 
  2078     1E21                     	;# 
  2079     1E22                     	;# 
  2080     1E23                     	;# 
  2081     1E24                     	;# 
  2082     1E25                     	;# 
  2083     1E26                     	;# 
  2084     1E27                     	;# 
  2085     1E28                     	;# 
  2086     1E29                     	;# 
  2087     1E2A                     	;# 
  2088     1E2B                     	;# 
  2089     1E2C                     	;# 
  2090     1E2D                     	;# 
  2091     1E2E                     	;# 
  2092     1E2F                     	;# 
  2093     1E30                     	;# 
  2094     1E31                     	;# 
  2095     1E32                     	;# 
  2096     1E33                     	;# 
  2097     1E34                     	;# 
  2098     1E35                     	;# 
  2099     1E36                     	;# 
  2100     1E37                     	;# 
  2101     1E8F                     	;# 
  2102     1E90                     	;# 
  2103     1E91                     	;# 
  2104     1E92                     	;# 
  2105     1E93                     	;# 
  2106     1E94                     	;# 
  2107     1E95                     	;# 
  2108     1E96                     	;# 
  2109     1E97                     	;# 
  2110     1E9C                     	;# 
  2111     1E9D                     	;# 
  2112     1E9E                     	;# 
  2113     1EA1                     	;# 
  2114     1EA2                     	;# 
  2115     1EA3                     	;# 
  2116     1EA4                     	;# 
  2117     1EA5                     	;# 
  2118     1EA9                     	;# 
  2119     1EAA                     	;# 
  2120     1EAB                     	;# 
  2121     1EAC                     	;# 
  2122     1EB1                     	;# 
  2123     1EB2                     	;# 
  2124     1EB3                     	;# 
  2125     1EB8                     	;# 
  2126     1EB9                     	;# 
  2127     1EBA                     	;# 
  2128     1EBB                     	;# 
  2129     1EBC                     	;# 
  2130     1EBD                     	;# 
  2131     1EBE                     	;# 
  2132     1EC3                     	;# 
  2133     1EC5                     	;# 
  2134     1EC6                     	;# 
  2135     1EC7                     	;# 
  2136     1EC8                     	;# 
  2137     1EC9                     	;# 
  2138     1ECA                     	;# 
  2139     1ECB                     	;# 
  2140     1ECC                     	;# 
  2141     1F10                     	;# 
  2142     1F11                     	;# 
  2143     1F12                     	;# 
  2144     1F13                     	;# 
  2145     1F14                     	;# 
  2146     1F15                     	;# 
  2147     1F16                     	;# 
  2148     1F17                     	;# 
  2149     1F18                     	;# 
  2150     1F19                     	;# 
  2151     1F1A                     	;# 
  2152     1F1B                     	;# 
  2153     1F1C                     	;# 
  2154     1F1D                     	;# 
  2155     1F1E                     	;# 
  2156     1F1F                     	;# 
  2157     1F20                     	;# 
  2158     1F21                     	;# 
  2159     1F22                     	;# 
  2160     1F23                     	;# 
  2161     1F24                     	;# 
  2162     1F25                     	;# 
  2163     1F26                     	;# 
  2164     1F27                     	;# 
  2165     1F28                     	;# 
  2166     1F29                     	;# 
  2167     1F2A                     	;# 
  2168     1F2B                     	;# 
  2169     1F2C                     	;# 
  2170     1F2D                     	;# 
  2171     1F2E                     	;# 
  2172     1F2F                     	;# 
  2173     1F30                     	;# 
  2174     1F31                     	;# 
  2175     1F32                     	;# 
  2176     1F38                     	;# 
  2177     1F39                     	;# 
  2178     1F3A                     	;# 
  2179     1F3B                     	;# 
  2180     1F3C                     	;# 
  2181     1F3D                     	;# 
  2182     1F3E                     	;# 
  2183     1F3F                     	;# 
  2184     1F40                     	;# 
  2185     1F41                     	;# 
  2186     1F43                     	;# 
  2187     1F44                     	;# 
  2188     1F45                     	;# 
  2189     1F46                     	;# 
  2190     1F47                     	;# 
  2191     1F48                     	;# 
  2192     1F49                     	;# 
  2193     1F4A                     	;# 
  2194     1F4B                     	;# 
  2195     1F4C                     	;# 
  2196     1F4E                     	;# 
  2197     1F4F                     	;# 
  2198     1F50                     	;# 
  2199     1F51                     	;# 
  2200     1F52                     	;# 
  2201     1F53                     	;# 
  2202     1F54                     	;# 
  2203     1F55                     	;# 
  2204     1F56                     	;# 
  2205     1F57                     	;# 
  2206     1F59                     	;# 
  2207     1F5A                     	;# 
  2208     1F5B                     	;# 
  2209     1F5C                     	;# 
  2210     1F5D                     	;# 
  2211     1F61                     	;# 
  2212     1F62                     	;# 
  2213     1F64                     	;# 
  2214     1F65                     	;# 
  2215     1F66                     	;# 
  2216     1F67                     	;# 
  2217     1F68                     	;# 
  2218     1F69                     	;# 
  2219     1F6A                     	;# 
  2220     1F6B                     	;# 
  2221     1F6C                     	;# 
  2222     1F6D                     	;# 
  2223     1FE4                     	;# 
  2224     1FE5                     	;# 
  2225     1FE6                     	;# 
  2226     1FE7                     	;# 
  2227     1FE8                     	;# 
  2228     1FE9                     	;# 
  2229     1FEA                     	;# 
  2230     1FEB                     	;# 
  2231     1FED                     	;# 
  2232     1FEE                     	;# 
  2233     1FEF                     	;# 
  2234                           
  2235                           	psect	stringtext1
  2236     0800                     __pstringtext1:
  2237     0800                     _segTable:
  2238     0800  34C0               	retlw	192
  2239     0801  34F9               	retlw	249
  2240     0802  34A4               	retlw	164
  2241     0803  34B0               	retlw	176
  2242     0804  3499               	retlw	153
  2243     0805  3492               	retlw	146
  2244     0806  3482               	retlw	130
  2245     0807  34F8               	retlw	248
  2246     0808  3480               	retlw	128
  2247     0809  3490               	retlw	144
  2248     080A  34FF               	retlw	255
  2249     080B                     __end_of_segTable:
  2250     000E                     _PORTC	set	14
  2251     000C                     _PORTAbits	set	12
  2252     000D                     _PORTBbits	set	13
  2253     0013                     _TRISC	set	19
  2254     0012                     _TRISB	set	18
  2255     0011                     _TRISA	set	17
  2256     1F4E                     _ANSELC	set	8014
  2257     1F43                     _ANSELB	set	8003
  2258     1F38                     _ANSELA	set	7992
  2259                           
  2260                           	psect	cinit
  2261     07FB                     start_initialization:	
  2262                           ; #config settings
  2263                           
  2264     07FB                     __initialization:
  2265                           
  2266                           ; Clear objects allocated to BANK0
  2267     07FB  0140               	movlb	0	; select bank0
  2268     07FC  01AD               	clrf	__pbssBANK0& (0+127)
  2269     07FD                     end_of_initialization:	
  2270                           ;End of C runtime variable initialization code
  2271                           
  2272     07FD                     __end_of__initialization:
  2273     07FD  0140               	movlb	0
  2274     07FE  3186  2E71         	ljmp	_main	;jump to C main() function
  2275                           
  2276                           	psect	bssBANK0
  2277     002D                     __pbssBANK0:
  2278     002D                     _btnCount:
  2279     002D                     	ds	1
  2280                           
  2281                           	psect	cstackCOMMON
  2282     0070                     __pcstackCOMMON:
  2283     0070                     ?_initSysPins:
  2284     0070                     ??_initSysPins:	
  2285                           ; 1 bytes @ 0x0
  2286                           
  2287     0070                     ?_usrTask_Disp7Seg:	
  2288                           ; 1 bytes @ 0x0
  2289                           
  2290     0070                     ?_detSW0:	
  2291                           ; 1 bytes @ 0x0
  2292                           
  2293     0070                     ??_detSW0:	
  2294                           ; 1 bytes @ 0x0
  2295                           
  2296     0070                     ?_main:	
  2297                           ; 1 bytes @ 0x0
  2298                           
  2299     0070                     ?___lwdiv:	
  2300                           ; 1 bytes @ 0x0
  2301                           
  2302     0070                     ___lwdiv@divisor:	
  2303                           ; 2 bytes @ 0x0
  2304                           
  2305                           
  2306                           ; 2 bytes @ 0x0
  2307     0070                     	ds	1
  2308     0071                     detSW0@detect:
  2309                           
  2310                           ; 1 bytes @ 0x1
  2311     0071                     	ds	1
  2312     0072                     ___lwdiv@dividend:
  2313                           
  2314                           ; 2 bytes @ 0x2
  2315     0072                     	ds	2
  2316     0074                     ??___lwdiv:
  2317                           
  2318                           ; 1 bytes @ 0x4
  2319     0074                     	ds	1
  2320     0075                     ___lwdiv@quotient:
  2321                           
  2322                           ; 2 bytes @ 0x5
  2323     0075                     	ds	2
  2324     0077                     ___lwdiv@counter:
  2325                           
  2326                           ; 1 bytes @ 0x7
  2327     0077                     	ds	1
  2328     0078                     ?___lwmod:
  2329     0078                     ___lwmod@divisor:	
  2330                           ; 2 bytes @ 0x8
  2331                           
  2332                           
  2333                           ; 2 bytes @ 0x8
  2334     0078                     	ds	2
  2335     007A                     ___lwmod@dividend:
  2336                           
  2337                           ; 2 bytes @ 0xA
  2338     007A                     	ds	2
  2339     007C                     ??___lwmod:
  2340                           
  2341                           ; 1 bytes @ 0xC
  2342     007C                     	ds	1
  2343     007D                     ___lwmod@counter:
  2344                           
  2345                           ; 1 bytes @ 0xD
  2346     007D                     	ds	1
  2347     007E                     ??_main:
  2348                           
  2349                           	psect	cstackBANK0
  2350     0020                     __pcstackBANK0:	
  2351                           ; 1 bytes @ 0xE
  2352                           
  2353     0020                     ?_seg_DispAll:
  2354     0020                     seg_DispAll@result:	
  2355                           ; 1 bytes @ 0x0
  2356                           
  2357                           
  2358                           ; 2 bytes @ 0x0
  2359     0020                     	ds	2
  2360     0022                     ??_seg_DispAll:
  2361                           
  2362                           ; 1 bytes @ 0x2
  2363     0022                     	ds	1
  2364     0023                     seg_DispAll@dig0:
  2365                           
  2366                           ; 2 bytes @ 0x3
  2367     0023                     	ds	2
  2368     0025                     seg_DispAll@dig1:
  2369                           
  2370                           ; 2 bytes @ 0x5
  2371     0025                     	ds	2
  2372     0027                     seg_DispAll@dig2:
  2373                           
  2374                           ; 2 bytes @ 0x7
  2375     0027                     	ds	2
  2376     0029                     seg_DispAll@dig3:
  2377                           
  2378                           ; 2 bytes @ 0x9
  2379     0029                     	ds	2
  2380     002B                     ??_usrTask_Disp7Seg:
  2381                           
  2382                           ; 1 bytes @ 0xB
  2383     002B                     	ds	2
  2384                           
  2385                           	psect	maintext
  2386     0671                     __pmaintext:	
  2387 ;;
  2388 ;;Main: autosize = 0, tempsize = 0, incstack = 0, save=0
  2389 ;;
  2390 ;; *************** function _main *****************
  2391 ;; Defined at:
  2392 ;;		line 16 in file "main.c"
  2393 ;; Parameters:    Size  Location     Type
  2394 ;;		None
  2395 ;; Auto vars:     Size  Location     Type
  2396 ;;		None
  2397 ;; Return value:  Size  Location     Type
  2398 ;;                  1    wreg      void 
  2399 ;; Registers used:
  2400 ;;		wreg, fsr0l, fsr0h, status,2, status,0, pclath, cstack
  2401 ;; Tracked objects:
  2402 ;;		On entry : B3F/0
  2403 ;;		On exit  : 0/0
  2404 ;;		Unchanged: 0/0
  2405 ;; Data sizes:     COMMON   BANK0   BANK1   BANK2   BANK3   BANK4   BANK5   BANK6   BANK7   BANK8   BANK9  BANK10  BANK1
      +1  BANK12  BANK13  BANK14  BANK15  BANK16  BANK17  BANK18  BANK19  BANK20  BANK21  BANK22  BANK23  BANK24  BANK25  BANK2
      +6  BANK27  BANK28  BANK29  BANK30  BANK31  BANK32  BANK33  BANK34  BANK35  BANK36  BANK37  BANK38  BANK39  BANK40  BANK4
      +1  BANK42  BANK43  BANK44  BANK45  BANK46  BANK47  BANK48  BANK49  BANK50
  2406 ;;      Params:         0       0       0       0       0       0       0       0       0       0       0       0       
      +0       0       0       0       0       0       0       0       0       0       0       0       0       0       0       
      +0       0       0       0       0       0       0       0       0       0       0       0       0       0       0       
      +0       0       0       0       0       0       0       0       0       0
  2407 ;;      Locals:         0       0       0       0       0       0       0       0       0       0       0       0       
      +0       0       0       0       0       0       0       0       0       0       0       0       0       0       0       
      +0       0       0       0       0       0       0       0       0       0       0       0       0       0       0       
      +0       0       0       0       0       0       0       0       0       0
  2408 ;;      Temps:          0       0       0       0       0       0       0       0       0       0       0       0       
      +0       0       0       0       0       0       0       0       0       0       0       0       0       0       0       
      +0       0       0       0       0       0       0       0       0       0       0       0       0       0       0       
      +0       0       0       0       0       0       0       0       0       0
  2409 ;;      Totals:         0       0       0       0       0       0       0       0       0       0       0       0       
      +0       0       0       0       0       0       0       0       0       0       0       0       0       0       0       
      +0       0       0       0       0       0       0       0       0       0       0       0       0       0       0       
      +0       0       0       0       0       0       0       0       0       0
  2410 ;;Total ram usage:        0 bytes
  2411 ;; Hardware stack levels required when called: 3
  2412 ;; This function calls:
  2413 ;;		_initSysPins
  2414 ;;		_usrTask_Disp7Seg
  2415 ;; This function is called by:
  2416 ;;		Startup code after reset
  2417 ;; This function uses a non-reentrant model
  2418 ;;
  2419                           
  2420     0671                     _main:	
  2421                           ;psect for function _main
  2422                           
  2423     0671                     l909:	
  2424                           ;incstack = 0
  2425                           ; Regs used in _main: [wreg-fsr0h+status,2+status,0+pclath+cstack]
  2426                           
  2427                           
  2428                           ;main.c: 18:     initSysPins();
  2429     0671  3186  267A  3186   	fcall	_initSysPins
  2430     0674                     l911:
  2431                           
  2432                           ;main.c: 20:      usrTask_Disp7Seg();
  2433     0674  3186  26A0  3186   	fcall	_usrTask_Disp7Seg
  2434     0677  2E74               	goto	l911
  2435     0678  3180  2802         	ljmp	start
  2436     067A                     __end_of_main:
  2437                           
  2438                           	psect	text1
  2439     06A0                     __ptext1:	
  2440 ;; *************** function _usrTask_Disp7Seg *****************
  2441 ;; Defined at:
  2442 ;;		line 18 in file "usrTask.c"
  2443 ;; Parameters:    Size  Location     Type
  2444 ;;		None
  2445 ;; Auto vars:     Size  Location     Type
  2446 ;;		None
  2447 ;; Return value:  Size  Location     Type
  2448 ;;                  1    wreg      void 
  2449 ;; Registers used:
  2450 ;;		wreg, fsr0l, fsr0h, status,2, status,0, pclath, cstack
  2451 ;; Tracked objects:
  2452 ;;		On entry : 0/0
  2453 ;;		On exit  : 0/0
  2454 ;;		Unchanged: 0/0
  2455 ;; Data sizes:     COMMON   BANK0   BANK1   BANK2   BANK3   BANK4   BANK5   BANK6   BANK7   BANK8   BANK9  BANK10  BANK1
      +1  BANK12  BANK13  BANK14  BANK15  BANK16  BANK17  BANK18  BANK19  BANK20  BANK21  BANK22  BANK23  BANK24  BANK25  BANK2
      +6  BANK27  BANK28  BANK29  BANK30  BANK31  BANK32  BANK33  BANK34  BANK35  BANK36  BANK37  BANK38  BANK39  BANK40  BANK4
      +1  BANK42  BANK43  BANK44  BANK45  BANK46  BANK47  BANK48  BANK49  BANK50
  2456 ;;      Params:         0       0       0       0       0       0       0       0       0       0       0       0       
      +0       0       0       0       0       0       0       0       0       0       0       0       0       0       0       
      +0       0       0       0       0       0       0       0       0       0       0       0       0       0       0       
      +0       0       0       0       0       0       0       0       0       0
  2457 ;;      Locals:         0       0       0       0       0       0       0       0       0       0       0       0       
      +0       0       0       0       0       0       0       0       0       0       0       0       0       0       0       
      +0       0       0       0       0       0       0       0       0       0       0       0       0       0       0       
      +0       0       0       0       0       0       0       0       0       0
  2458 ;;      Temps:          0       2       0       0       0       0       0       0       0       0       0       0       
      +0       0       0       0       0       0       0       0       0       0       0       0       0       0       0       
      +0       0       0       0       0       0       0       0       0       0       0       0       0       0       0       
      +0       0       0       0       0       0       0       0       0       0
  2459 ;;      Totals:         0       2       0       0       0       0       0       0       0       0       0       0       
      +0       0       0       0       0       0       0       0       0       0       0       0       0       0       0       
      +0       0       0       0       0       0       0       0       0       0       0       0       0       0       0       
      +0       0       0       0       0       0       0       0       0       0
  2460 ;;Total ram usage:        2 bytes
  2461 ;; Hardware stack levels used: 1
  2462 ;; Hardware stack levels required when called: 2
  2463 ;; This function calls:
  2464 ;;		_detSW0
  2465 ;;		_seg_DispAll
  2466 ;; This function is called by:
  2467 ;;		_main
  2468 ;; This function uses a non-reentrant model
  2469 ;;
  2470                           
  2471     06A0                     _usrTask_Disp7Seg:	
  2472                           ;psect for function _usrTask_Disp7Seg
  2473                           
  2474     06A0                     l899:	
  2475                           ;incstack = 0
  2476                           ; Regs used in _usrTask_Disp7Seg: [wreg-fsr0h+status,2+status,0+pclath+cstack]
  2477                           
  2478                           
  2479                           ;usrTask.c: 19:     if (detSW0() == 1)
  2480     06A0  3186  2685  3186   	fcall	_detSW0
  2481     06A3  3A01               	xorlw	1
  2482     06A4  1D03               	skipz
  2483     06A5  2EA7               	goto	u351
  2484     06A6  2EA8               	goto	u350
  2485     06A7                     u351:
  2486     06A7  2EB4               	goto	l907
  2487     06A8                     u350:
  2488     06A8                     l901:
  2489                           
  2490                           ;usrTask.c: 20:     {;usrTask.c: 21:         btnCount++;
  2491     06A8  3001               	movlw	1
  2492     06A9  0140               	movlb	0	; select bank0
  2493     06AA  00AB               	movwf	??_usrTask_Disp7Seg
  2494     06AB  082B               	movf	??_usrTask_Disp7Seg,w
  2495     06AC  07AD               	addwf	_btnCount,f
  2496     06AD                     l903:
  2497                           
  2498                           ;usrTask.c: 22:         if (btnCount > 99)
  2499     06AD  3064               	movlw	100
  2500     06AE  022D               	subwf	_btnCount,w
  2501     06AF  1C03               	skipc
  2502     06B0  2EB2               	goto	u361
  2503     06B1  2EB3               	goto	u360
  2504     06B2                     u361:
  2505     06B2  2EB4               	goto	l907
  2506     06B3                     u360:
  2507     06B3                     l905:
  2508                           
  2509                           ;usrTask.c: 23:             btnCount = 0;
  2510     06B3  01AD               	clrf	_btnCount
  2511     06B4                     l907:
  2512                           
  2513                           ;usrTask.c: 25:     seg_DispAll(btnCount);
  2514     06B4  0140               	movlb	0	; select bank0
  2515     06B5  082D               	movf	_btnCount,w
  2516     06B6  00AB               	movwf	??_usrTask_Disp7Seg
  2517     06B7  01AC               	clrf	??_usrTask_Disp7Seg+1
  2518     06B8  082B               	movf	??_usrTask_Disp7Seg,w
  2519     06B9  00A0               	movwf	seg_DispAll@result
  2520     06BA  082C               	movf	??_usrTask_Disp7Seg+1,w
  2521     06BB  00A1               	movwf	seg_DispAll@result+1
  2522     06BC  3187  2730  3186   	fcall	_seg_DispAll
  2523     06BF                     l42:
  2524     06BF  0008               	return
  2525     06C0                     __end_of_usrTask_Disp7Seg:
  2526                           
  2527                           	psect	text2
  2528     0730                     __ptext2:	
  2529 ;; *************** function _seg_DispAll *****************
  2530 ;; Defined at:
  2531 ;;		line 30 in file "sev_seg.c"
  2532 ;; Parameters:    Size  Location     Type
  2533 ;;  result          2    0[BANK0 ] unsigned int 
  2534 ;; Auto vars:     Size  Location     Type
  2535 ;;  dig3            2    9[BANK0 ] int 
  2536 ;;  dig2            2    7[BANK0 ] int 
  2537 ;;  dig1            2    5[BANK0 ] int 
  2538 ;;  dig0            2    3[BANK0 ] int 
  2539 ;;  dig4            2    0        int 
  2540 ;; Return value:  Size  Location     Type
  2541 ;;                  1    wreg      void 
  2542 ;; Registers used:
  2543 ;;		wreg, fsr0l, fsr0h, status,2, status,0, pclath, cstack
  2544 ;; Tracked objects:
  2545 ;;		On entry : 0/0
  2546 ;;		On exit  : 0/0
  2547 ;;		Unchanged: 0/0
  2548 ;; Data sizes:     COMMON   BANK0   BANK1   BANK2   BANK3   BANK4   BANK5   BANK6   BANK7   BANK8   BANK9  BANK10  BANK1
      +1  BANK12  BANK13  BANK14  BANK15  BANK16  BANK17  BANK18  BANK19  BANK20  BANK21  BANK22  BANK23  BANK24  BANK25  BANK2
      +6  BANK27  BANK28  BANK29  BANK30  BANK31  BANK32  BANK33  BANK34  BANK35  BANK36  BANK37  BANK38  BANK39  BANK40  BANK4
      +1  BANK42  BANK43  BANK44  BANK45  BANK46  BANK47  BANK48  BANK49  BANK50
  2549 ;;      Params:         0       2       0       0       0       0       0       0       0       0       0       0       
      +0       0       0       0       0       0       0       0       0       0       0       0       0       0       0       
      +0       0       0       0       0       0       0       0       0       0       0       0       0       0       0       
      +0       0       0       0       0       0       0       0       0       0
  2550 ;;      Locals:         0       8       0       0       0       0       0       0       0       0       0       0       
      +0       0       0       0       0       0       0       0       0       0       0       0       0       0       0       
      +0       0       0       0       0       0       0       0       0       0       0       0       0       0       0       
      +0       0       0       0       0       0       0       0       0       0
  2551 ;;      Temps:          0       1       0       0       0       0       0       0       0       0       0       0       
      +0       0       0       0       0       0       0       0       0       0       0       0       0       0       0       
      +0       0       0       0       0       0       0       0       0       0       0       0       0       0       0       
      +0       0       0       0       0       0       0       0       0       0
  2552 ;;      Totals:         0      11       0       0       0       0       0       0       0       0       0       0       
      +0       0       0       0       0       0       0       0       0       0       0       0       0       0       0       
      +0       0       0       0       0       0       0       0       0       0       0       0       0       0       0       
      +0       0       0       0       0       0       0       0       0       0
  2553 ;;Total ram usage:       11 bytes
  2554 ;; Hardware stack levels used: 1
  2555 ;; Hardware stack levels required when called: 1
  2556 ;; This function calls:
  2557 ;;		___lwdiv
  2558 ;;		___lwmod
  2559 ;; This function is called by:
  2560 ;;		_usrTask_Disp7Seg
  2561 ;; This function uses a non-reentrant model
  2562 ;;
  2563                           
  2564     0730                     _seg_DispAll:	
  2565                           ;psect for function _seg_DispAll
  2566                           
  2567     0730                     l857:	
  2568                           ;incstack = 0
  2569                           ; Regs used in _seg_DispAll: [wreg-fsr0h+status,2+status,0+pclath+cstack]
  2570                           
  2571                           
  2572                           ;sev_seg.c: 30: void seg_DispAll(unsigned int result);sev_seg.c: 31: {;sev_seg.c: 32:   
      +                            int dig0,dig1,dig2,dig3,dig4;;sev_seg.c: 33:     dig0 = result%10;
  2573     0730  300A               	movlw	10
  2574     0731  00F8               	movwf	___lwmod@divisor
  2575     0732  3000               	movlw	0
  2576     0733  00F9               	movwf	___lwmod@divisor+1
  2577     0734  0140               	movlb	0	; select bank0
  2578     0735  0821               	movf	seg_DispAll@result+1,w
  2579     0736  00FB               	movwf	___lwmod@dividend+1
  2580     0737  0820               	movf	seg_DispAll@result,w
  2581     0738  00FA               	movwf	___lwmod@dividend
  2582     0739  3186  26C0  3187   	fcall	___lwmod
  2583     073C  0879               	movf	?___lwmod+1,w
  2584     073D  0140               	movlb	0	; select bank0
  2585     073E  00A4               	movwf	seg_DispAll@dig0+1
  2586     073F  0878               	movf	?___lwmod,w
  2587     0740  00A3               	movwf	seg_DispAll@dig0
  2588                           
  2589                           ;sev_seg.c: 34:     dig1 =(result/10)%10;
  2590     0741  300A               	movlw	10
  2591     0742  00F8               	movwf	___lwmod@divisor
  2592     0743  3000               	movlw	0
  2593     0744  00F9               	movwf	___lwmod@divisor+1
  2594     0745  300A               	movlw	10
  2595     0746  00F0               	movwf	___lwdiv@divisor
  2596     0747  3000               	movlw	0
  2597     0748  00F1               	movwf	___lwdiv@divisor+1
  2598     0749  0821               	movf	seg_DispAll@result+1,w
  2599     074A  00F3               	movwf	___lwdiv@dividend+1
  2600     074B  0820               	movf	seg_DispAll@result,w
  2601     074C  00F2               	movwf	___lwdiv@dividend
  2602     074D  3186  26F4  3187   	fcall	___lwdiv
  2603     0750  0871               	movf	?___lwdiv+1,w
  2604     0751  00FB               	movwf	___lwmod@dividend+1
  2605     0752  0870               	movf	?___lwdiv,w
  2606     0753  00FA               	movwf	___lwmod@dividend
  2607     0754  3186  26C0  3187   	fcall	___lwmod
  2608     0757  0879               	movf	?___lwmod+1,w
  2609     0758  0140               	movlb	0	; select bank0
  2610     0759  00A6               	movwf	seg_DispAll@dig1+1
  2611     075A  0878               	movf	?___lwmod,w
  2612     075B  00A5               	movwf	seg_DispAll@dig1
  2613                           
  2614                           ;sev_seg.c: 35:     dig2 =(result/100)%10;
  2615     075C  300A               	movlw	10
  2616     075D  00F8               	movwf	___lwmod@divisor
  2617     075E  3000               	movlw	0
  2618     075F  00F9               	movwf	___lwmod@divisor+1
  2619     0760  3064               	movlw	100
  2620     0761  00F0               	movwf	___lwdiv@divisor
  2621     0762  3000               	movlw	0
  2622     0763  00F1               	movwf	___lwdiv@divisor+1
  2623     0764  0821               	movf	seg_DispAll@result+1,w
  2624     0765  00F3               	movwf	___lwdiv@dividend+1
  2625     0766  0820               	movf	seg_DispAll@result,w
  2626     0767  00F2               	movwf	___lwdiv@dividend
  2627     0768  3186  26F4  3187   	fcall	___lwdiv
  2628     076B  0871               	movf	?___lwdiv+1,w
  2629     076C  00FB               	movwf	___lwmod@dividend+1
  2630     076D  0870               	movf	?___lwdiv,w
  2631     076E  00FA               	movwf	___lwmod@dividend
  2632     076F  3186  26C0  3187   	fcall	___lwmod
  2633     0772  0879               	movf	?___lwmod+1,w
  2634     0773  0140               	movlb	0	; select bank0
  2635     0774  00A8               	movwf	seg_DispAll@dig2+1
  2636     0775  0878               	movf	?___lwmod,w
  2637     0776  00A7               	movwf	seg_DispAll@dig2
  2638                           
  2639                           ;sev_seg.c: 36:     dig3 =(result/1000%10);
  2640     0777  300A               	movlw	10
  2641     0778  00F8               	movwf	___lwmod@divisor
  2642     0779  3000               	movlw	0
  2643     077A  00F9               	movwf	___lwmod@divisor+1
  2644     077B  30E8               	movlw	232
  2645     077C  00F0               	movwf	___lwdiv@divisor
  2646     077D  3003               	movlw	3
  2647     077E  00F1               	movwf	___lwdiv@divisor+1
  2648     077F  0821               	movf	seg_DispAll@result+1,w
  2649     0780  00F3               	movwf	___lwdiv@dividend+1
  2650     0781  0820               	movf	seg_DispAll@result,w
  2651     0782  00F2               	movwf	___lwdiv@dividend
  2652     0783  3186  26F4  3187   	fcall	___lwdiv
  2653     0786  0871               	movf	?___lwdiv+1,w
  2654     0787  00FB               	movwf	___lwmod@dividend+1
  2655     0788  0870               	movf	?___lwdiv,w
  2656     0789  00FA               	movwf	___lwmod@dividend
  2657     078A  3186  26C0  3187   	fcall	___lwmod
  2658     078D  0879               	movf	?___lwmod+1,w
  2659     078E  0140               	movlb	0	; select bank0
  2660     078F  00AA               	movwf	seg_DispAll@dig3+1
  2661     0790  0878               	movf	?___lwmod,w
  2662     0791  00A9               	movwf	seg_DispAll@dig3
  2663     0792                     l859:
  2664                           
  2665                           ;sev_seg.c: 37:     PORTAbits.RA5=0;
  2666     0792  128C               	bcf	12,5	;volatile
  2667     0793                     l861:
  2668                           
  2669                           ;sev_seg.c: 38:     PORTAbits.RA4=0;
  2670     0793  120C               	bcf	12,4	;volatile
  2671     0794                     l863:
  2672                           
  2673                           ;sev_seg.c: 39:     PORTC = segTable[dig0];
  2674     0794  3000               	movlw	low _segTable
  2675     0795  0723               	addwf	seg_DispAll@dig0,w
  2676     0796  0084               	movwf	4
  2677     0797  3008               	movlw	high _segTable
  2678     0798  3D24               	addwfc	seg_DispAll@dig0+1,w
  2679     0799  3880               	iorlw	128
  2680     079A  0085               	movwf	5
  2681     079B  0800               	movf	0,w	;code access
  2682     079C  008E               	movwf	14	;volatile
  2683     079D                     l865:
  2684                           
  2685                           ;sev_seg.c: 40:     _delay((unsigned long)((5)*(4000000/4000.0)));
  2686     079D  3007               	movlw	7
  2687     079E  0140               	movlb	0	; select bank0
  2688     079F  00A2               	movwf	??_seg_DispAll
  2689     07A0  307D               	movlw	125
  2690     07A1                     u377:
  2691     07A1  0B89               	decfsz	9,f
  2692     07A2  2FA1               	goto	u377
  2693     07A3  0BA2               	decfsz	??_seg_DispAll,f
  2694     07A4  2FA1               	goto	u377
  2695     07A5                     l867:
  2696                           
  2697                           ;sev_seg.c: 41:     PORTC = segTable[10];
  2698     07A5  300A               	movlw	low ((_segTable+10)| (0+32768))
  2699     07A6  0084               	movwf	4
  2700     07A7  3088               	movlw	high ((_segTable+10)| (0+32768))
  2701     07A8  0085               	movwf	5
  2702     07A9  0800               	movf	0,w	;code access
  2703     07AA  0140               	movlb	0	; select bank0
  2704     07AB  008E               	movwf	14	;volatile
  2705     07AC                     l869:
  2706                           
  2707                           ;sev_seg.c: 43:     PORTAbits.RA5 = 0;
  2708     07AC  128C               	bcf	12,5	;volatile
  2709     07AD                     l871:
  2710                           
  2711                           ;sev_seg.c: 44:     PORTAbits.RA4 = 1;
  2712     07AD  160C               	bsf	12,4	;volatile
  2713     07AE                     l873:
  2714                           
  2715                           ;sev_seg.c: 45:     PORTC = segTable[dig1];
  2716     07AE  3000               	movlw	low _segTable
  2717     07AF  0725               	addwf	seg_DispAll@dig1,w
  2718     07B0  0084               	movwf	4
  2719     07B1  3008               	movlw	high _segTable
  2720     07B2  3D26               	addwfc	seg_DispAll@dig1+1,w
  2721     07B3  3880               	iorlw	128
  2722     07B4  0085               	movwf	5
  2723     07B5  0800               	movf	0,w	;code access
  2724     07B6  008E               	movwf	14	;volatile
  2725     07B7                     l875:
  2726                           
  2727                           ;sev_seg.c: 46:     _delay((unsigned long)((5)*(4000000/4000.0)));
  2728     07B7  3007               	movlw	7
  2729     07B8  0140               	movlb	0	; select bank0
  2730     07B9  00A2               	movwf	??_seg_DispAll
  2731     07BA  307D               	movlw	125
  2732     07BB                     u387:
  2733     07BB  0B89               	decfsz	9,f
  2734     07BC  2FBB               	goto	u387
  2735     07BD  0BA2               	decfsz	??_seg_DispAll,f
  2736     07BE  2FBB               	goto	u387
  2737     07BF                     l877:
  2738                           
  2739                           ;sev_seg.c: 47:     PORTC= segTable[10];
  2740     07BF  300A               	movlw	low ((_segTable+10)| (0+32768))
  2741     07C0  0084               	movwf	4
  2742     07C1  3088               	movlw	high ((_segTable+10)| (0+32768))
  2743     07C2  0085               	movwf	5
  2744     07C3  0800               	movf	0,w	;code access
  2745     07C4  0140               	movlb	0	; select bank0
  2746     07C5  008E               	movwf	14	;volatile
  2747     07C6                     l879:
  2748                           
  2749                           ;sev_seg.c: 49:     PORTAbits.RA5 = 1;
  2750     07C6  168C               	bsf	12,5	;volatile
  2751     07C7                     l881:
  2752                           
  2753                           ;sev_seg.c: 50:     PORTAbits.RA4 = 0;
  2754     07C7  120C               	bcf	12,4	;volatile
  2755     07C8                     l883:
  2756                           
  2757                           ;sev_seg.c: 51:     PORTC = segTable[dig2];
  2758     07C8  3000               	movlw	low _segTable
  2759     07C9  0727               	addwf	seg_DispAll@dig2,w
  2760     07CA  0084               	movwf	4
  2761     07CB  3008               	movlw	high _segTable
  2762     07CC  3D28               	addwfc	seg_DispAll@dig2+1,w
  2763     07CD  3880               	iorlw	128
  2764     07CE  0085               	movwf	5
  2765     07CF  0800               	movf	0,w	;code access
  2766     07D0  008E               	movwf	14	;volatile
  2767     07D1                     l885:
  2768                           
  2769                           ;sev_seg.c: 52:     _delay((unsigned long)((5)*(4000000/4000.0)));
  2770     07D1  3007               	movlw	7
  2771     07D2  0140               	movlb	0	; select bank0
  2772     07D3  00A2               	movwf	??_seg_DispAll
  2773     07D4  307D               	movlw	125
  2774     07D5                     u397:
  2775     07D5  0B89               	decfsz	9,f
  2776     07D6  2FD5               	goto	u397
  2777     07D7  0BA2               	decfsz	??_seg_DispAll,f
  2778     07D8  2FD5               	goto	u397
  2779     07D9                     l887:
  2780                           
  2781                           ;sev_seg.c: 53:     PORTC= segTable[10];
  2782     07D9  300A               	movlw	low ((_segTable+10)| (0+32768))
  2783     07DA  0084               	movwf	4
  2784     07DB  3088               	movlw	high ((_segTable+10)| (0+32768))
  2785     07DC  0085               	movwf	5
  2786     07DD  0800               	movf	0,w	;code access
  2787     07DE  0140               	movlb	0	; select bank0
  2788     07DF  008E               	movwf	14	;volatile
  2789     07E0                     l889:
  2790                           
  2791                           ;sev_seg.c: 55:     PORTAbits.RA5 = 1;
  2792     07E0  168C               	bsf	12,5	;volatile
  2793     07E1                     l891:
  2794                           
  2795                           ;sev_seg.c: 56:     PORTAbits.RA4 = 1;
  2796     07E1  160C               	bsf	12,4	;volatile
  2797     07E2                     l893:
  2798                           
  2799                           ;sev_seg.c: 57:     PORTC = segTable[dig3];
  2800     07E2  3000               	movlw	low _segTable
  2801     07E3  0729               	addwf	seg_DispAll@dig3,w
  2802     07E4  0084               	movwf	4
  2803     07E5  3008               	movlw	high _segTable
  2804     07E6  3D2A               	addwfc	seg_DispAll@dig3+1,w
  2805     07E7  3880               	iorlw	128
  2806     07E8  0085               	movwf	5
  2807     07E9  0800               	movf	0,w	;code access
  2808     07EA  008E               	movwf	14	;volatile
  2809     07EB                     l895:
  2810                           
  2811                           ;sev_seg.c: 58:     _delay((unsigned long)((5)*(4000000/4000.0)));
  2812     07EB  3007               	movlw	7
  2813     07EC  0140               	movlb	0	; select bank0
  2814     07ED  00A2               	movwf	??_seg_DispAll
  2815     07EE  307D               	movlw	125
  2816     07EF                     u407:
  2817     07EF  0B89               	decfsz	9,f
  2818     07F0  2FEF               	goto	u407
  2819     07F1  0BA2               	decfsz	??_seg_DispAll,f
  2820     07F2  2FEF               	goto	u407
  2821     07F3                     l897:
  2822                           
  2823                           ;sev_seg.c: 59:     PORTC= segTable[10];
  2824     07F3  300A               	movlw	low ((_segTable+10)| (0+32768))
  2825     07F4  0084               	movwf	4
  2826     07F5  3088               	movlw	high ((_segTable+10)| (0+32768))
  2827     07F6  0085               	movwf	5
  2828     07F7  0800               	movf	0,w	;code access
  2829     07F8  0140               	movlb	0	; select bank0
  2830     07F9  008E               	movwf	14	;volatile
  2831     07FA                     l61:
  2832     07FA  0008               	return
  2833     07FB                     __end_of_seg_DispAll:
  2834                           
  2835                           	psect	text3
  2836     06C0                     __ptext3:	
  2837 ;; *************** function ___lwmod *****************
  2838 ;; Defined at:
  2839 ;;		line 5 in file "C:\Program Files\Microchip\xc8\v2.41\pic\sources\c99\common\lwmod.c"
  2840 ;; Parameters:    Size  Location     Type
  2841 ;;  divisor         2    8[COMMON] unsigned int 
  2842 ;;  dividend        2   10[COMMON] unsigned int 
  2843 ;; Auto vars:     Size  Location     Type
  2844 ;;  counter         1   13[COMMON] unsigned char 
  2845 ;; Return value:  Size  Location     Type
  2846 ;;                  2    8[COMMON] unsigned int 
  2847 ;; Registers used:
  2848 ;;		wreg, status,2, status,0
  2849 ;; Tracked objects:
  2850 ;;		On entry : 0/0
  2851 ;;		On exit  : 0/0
  2852 ;;		Unchanged: 0/0
  2853 ;; Data sizes:     COMMON   BANK0   BANK1   BANK2   BANK3   BANK4   BANK5   BANK6   BANK7   BANK8   BANK9  BANK10  BANK1
      +1  BANK12  BANK13  BANK14  BANK15  BANK16  BANK17  BANK18  BANK19  BANK20  BANK21  BANK22  BANK23  BANK24  BANK25  BANK2
      +6  BANK27  BANK28  BANK29  BANK30  BANK31  BANK32  BANK33  BANK34  BANK35  BANK36  BANK37  BANK38  BANK39  BANK40  BANK4
      +1  BANK42  BANK43  BANK44  BANK45  BANK46  BANK47  BANK48  BANK49  BANK50
  2854 ;;      Params:         4       0       0       0       0       0       0       0       0       0       0       0       
      +0       0       0       0       0       0       0       0       0       0       0       0       0       0       0       
      +0       0       0       0       0       0       0       0       0       0       0       0       0       0       0       
      +0       0       0       0       0       0       0       0       0       0
  2855 ;;      Locals:         1       0       0       0       0       0       0       0       0       0       0       0       
      +0       0       0       0       0       0       0       0       0       0       0       0       0       0       0       
      +0       0       0       0       0       0       0       0       0       0       0       0       0       0       0       
      +0       0       0       0       0       0       0       0       0       0
  2856 ;;      Temps:          1       0       0       0       0       0       0       0       0       0       0       0       
      +0       0       0       0       0       0       0       0       0       0       0       0       0       0       0       
      +0       0       0       0       0       0       0       0       0       0       0       0       0       0       0       
      +0       0       0       0       0       0       0       0       0       0
  2857 ;;      Totals:         6       0       0       0       0       0       0       0       0       0       0       0       
      +0       0       0       0       0       0       0       0       0       0       0       0       0       0       0       
      +0       0       0       0       0       0       0       0       0       0       0       0       0       0       0       
      +0       0       0       0       0       0       0       0       0       0
  2858 ;;Total ram usage:        6 bytes
  2859 ;; Hardware stack levels used: 1
  2860 ;; This function calls:
  2861 ;;		Nothing
  2862 ;; This function is called by:
  2863 ;;		_seg_DispAll
  2864 ;; This function uses a non-reentrant model
  2865 ;;
  2866                           
  2867     06C0                     ___lwmod:	
  2868                           ;psect for function ___lwmod
  2869                           
  2870     06C0                     l821:	
  2871                           ;incstack = 0
  2872                           ; Regs used in ___lwmod: [wreg+status,2+status,0]
  2873                           
  2874     06C0  0878               	movf	___lwmod@divisor,w
  2875     06C1  0479               	iorwf	___lwmod@divisor+1,w
  2876     06C2  1903               	btfsc	3,2
  2877     06C3  2EC5               	goto	u261
  2878     06C4  2EC6               	goto	u260
  2879     06C5                     u261:
  2880     06C5  2EEF               	goto	l839
  2881     06C6                     u260:
  2882     06C6                     l823:
  2883     06C6  01FD               	clrf	___lwmod@counter
  2884     06C7  0AFD               	incf	___lwmod@counter,f
  2885     06C8  2ED2               	goto	l829
  2886     06C9                     l825:
  2887     06C9  3001               	movlw	1
  2888     06CA                     u275:
  2889     06CA  35F8               	lslf	___lwmod@divisor,f
  2890     06CB  0DF9               	rlf	___lwmod@divisor+1,f
  2891     06CC  0B89               	decfsz	9,f
  2892     06CD  2ECA               	goto	u275
  2893     06CE                     l827:
  2894     06CE  3001               	movlw	1
  2895     06CF  00FC               	movwf	??___lwmod
  2896     06D0  087C               	movf	??___lwmod,w
  2897     06D1  07FD               	addwf	___lwmod@counter,f
  2898     06D2                     l829:
  2899     06D2  1FF9               	btfss	___lwmod@divisor+1,7
  2900     06D3  2ED5               	goto	u281
  2901     06D4  2ED6               	goto	u280
  2902     06D5                     u281:
  2903     06D5  2EC9               	goto	l825
  2904     06D6                     u280:
  2905     06D6                     l831:
  2906     06D6  0879               	movf	___lwmod@divisor+1,w
  2907     06D7  027B               	subwf	___lwmod@dividend+1,w
  2908     06D8  1D03               	skipz
  2909     06D9  2EDC               	goto	u295
  2910     06DA  0878               	movf	___lwmod@divisor,w
  2911     06DB  027A               	subwf	___lwmod@dividend,w
  2912     06DC                     u295:
  2913     06DC  1C03               	skipc
  2914     06DD  2EDF               	goto	u291
  2915     06DE  2EE0               	goto	u290
  2916     06DF                     u291:
  2917     06DF  2EE4               	goto	l835
  2918     06E0                     u290:
  2919     06E0                     l833:
  2920     06E0  0878               	movf	___lwmod@divisor,w
  2921     06E1  02FA               	subwf	___lwmod@dividend,f
  2922     06E2  0879               	movf	___lwmod@divisor+1,w
  2923     06E3  3BFB               	subwfb	___lwmod@dividend+1,f
  2924     06E4                     l835:
  2925     06E4  3001               	movlw	1
  2926     06E5                     u305:
  2927     06E5  36F9               	lsrf	___lwmod@divisor+1,f
  2928     06E6  0CF8               	rrf	___lwmod@divisor,f
  2929     06E7  0B89               	decfsz	9,f
  2930     06E8  2EE5               	goto	u305
  2931     06E9                     l837:
  2932     06E9  3001               	movlw	1
  2933     06EA  02FD               	subwf	___lwmod@counter,f
  2934     06EB  1D03               	btfss	3,2
  2935     06EC  2EEE               	goto	u311
  2936     06ED  2EEF               	goto	u310
  2937     06EE                     u311:
  2938     06EE  2ED6               	goto	l831
  2939     06EF                     u310:
  2940     06EF                     l839:
  2941     06EF  087B               	movf	___lwmod@dividend+1,w
  2942     06F0  00F9               	movwf	?___lwmod+1
  2943     06F1  087A               	movf	___lwmod@dividend,w
  2944     06F2  00F8               	movwf	?___lwmod
  2945     06F3                     l503:
  2946     06F3  0008               	return
  2947     06F4                     __end_of___lwmod:
  2948                           
  2949                           	psect	text4
  2950     06F4                     __ptext4:	
  2951 ;; *************** function ___lwdiv *****************
  2952 ;; Defined at:
  2953 ;;		line 5 in file "C:\Program Files\Microchip\xc8\v2.41\pic\sources\c99\common\lwdiv.c"
  2954 ;; Parameters:    Size  Location     Type
  2955 ;;  divisor         2    0[COMMON] unsigned int 
  2956 ;;  dividend        2    2[COMMON] unsigned int 
  2957 ;; Auto vars:     Size  Location     Type
  2958 ;;  quotient        2    5[COMMON] unsigned int 
  2959 ;;  counter         1    7[COMMON] unsigned char 
  2960 ;; Return value:  Size  Location     Type
  2961 ;;                  2    0[COMMON] unsigned int 
  2962 ;; Registers used:
  2963 ;;		wreg, status,2, status,0
  2964 ;; Tracked objects:
  2965 ;;		On entry : 0/0
  2966 ;;		On exit  : 0/0
  2967 ;;		Unchanged: 0/0
  2968 ;; Data sizes:     COMMON   BANK0   BANK1   BANK2   BANK3   BANK4   BANK5   BANK6   BANK7   BANK8   BANK9  BANK10  BANK1
      +1  BANK12  BANK13  BANK14  BANK15  BANK16  BANK17  BANK18  BANK19  BANK20  BANK21  BANK22  BANK23  BANK24  BANK25  BANK2
      +6  BANK27  BANK28  BANK29  BANK30  BANK31  BANK32  BANK33  BANK34  BANK35  BANK36  BANK37  BANK38  BANK39  BANK40  BANK4
      +1  BANK42  BANK43  BANK44  BANK45  BANK46  BANK47  BANK48  BANK49  BANK50
  2969 ;;      Params:         4       0       0       0       0       0       0       0       0       0       0       0       
      +0       0       0       0       0       0       0       0       0       0       0       0       0       0       0       
      +0       0       0       0       0       0       0       0       0       0       0       0       0       0       0       
      +0       0       0       0       0       0       0       0       0       0
  2970 ;;      Locals:         3       0       0       0       0       0       0       0       0       0       0       0       
      +0       0       0       0       0       0       0       0       0       0       0       0       0       0       0       
      +0       0       0       0       0       0       0       0       0       0       0       0       0       0       0       
      +0       0       0       0       0       0       0       0       0       0
  2971 ;;      Temps:          1       0       0       0       0       0       0       0       0       0       0       0       
      +0       0       0       0       0       0       0       0       0       0       0       0       0       0       0       
      +0       0       0       0       0       0       0       0       0       0       0       0       0       0       0       
      +0       0       0       0       0       0       0       0       0       0
  2972 ;;      Totals:         8       0       0       0       0       0       0       0       0       0       0       0       
      +0       0       0       0       0       0       0       0       0       0       0       0       0       0       0       
      +0       0       0       0       0       0       0       0       0       0       0       0       0       0       0       
      +0       0       0       0       0       0       0       0       0       0
  2973 ;;Total ram usage:        8 bytes
  2974 ;; Hardware stack levels used: 1
  2975 ;; This function calls:
  2976 ;;		Nothing
  2977 ;; This function is called by:
  2978 ;;		_seg_DispAll
  2979 ;; This function uses a non-reentrant model
  2980 ;;
  2981                           
  2982     06F4                     ___lwdiv:	
  2983                           ;psect for function ___lwdiv
  2984                           
  2985     06F4                     l795:	
  2986                           ;incstack = 0
  2987                           ; Regs used in ___lwdiv: [wreg+status,2+status,0]
  2988                           
  2989     06F4  01F5               	clrf	___lwdiv@quotient
  2990     06F5  01F6               	clrf	___lwdiv@quotient+1
  2991     06F6                     l797:
  2992     06F6  0870               	movf	___lwdiv@divisor,w
  2993     06F7  0471               	iorwf	___lwdiv@divisor+1,w
  2994     06F8  1903               	btfsc	3,2
  2995     06F9  2EFB               	goto	u191
  2996     06FA  2EFC               	goto	u190
  2997     06FB                     u191:
  2998     06FB  2F2B               	goto	l817
  2999     06FC                     u190:
  3000     06FC                     l799:
  3001     06FC  01F7               	clrf	___lwdiv@counter
  3002     06FD  0AF7               	incf	___lwdiv@counter,f
  3003     06FE  2F08               	goto	l805
  3004     06FF                     l801:
  3005     06FF  3001               	movlw	1
  3006     0700                     u205:
  3007     0700  35F0               	lslf	___lwdiv@divisor,f
  3008     0701  0DF1               	rlf	___lwdiv@divisor+1,f
  3009     0702  0B89               	decfsz	9,f
  3010     0703  2F00               	goto	u205
  3011     0704                     l803:
  3012     0704  3001               	movlw	1
  3013     0705  00F4               	movwf	??___lwdiv
  3014     0706  0874               	movf	??___lwdiv,w
  3015     0707  07F7               	addwf	___lwdiv@counter,f
  3016     0708                     l805:
  3017     0708  1FF1               	btfss	___lwdiv@divisor+1,7
  3018     0709  2F0B               	goto	u211
  3019     070A  2F0C               	goto	u210
  3020     070B                     u211:
  3021     070B  2EFF               	goto	l801
  3022     070C                     u210:
  3023     070C                     l807:
  3024     070C  3001               	movlw	1
  3025     070D                     u225:
  3026     070D  35F5               	lslf	___lwdiv@quotient,f
  3027     070E  0DF6               	rlf	___lwdiv@quotient+1,f
  3028     070F  0B89               	decfsz	9,f
  3029     0710  2F0D               	goto	u225
  3030     0711  0871               	movf	___lwdiv@divisor+1,w
  3031     0712  0273               	subwf	___lwdiv@dividend+1,w
  3032     0713  1D03               	skipz
  3033     0714  2F17               	goto	u235
  3034     0715  0870               	movf	___lwdiv@divisor,w
  3035     0716  0272               	subwf	___lwdiv@dividend,w
  3036     0717                     u235:
  3037     0717  1C03               	skipc
  3038     0718  2F1A               	goto	u231
  3039     0719  2F1B               	goto	u230
  3040     071A                     u231:
  3041     071A  2F20               	goto	l813
  3042     071B                     u230:
  3043     071B                     l809:
  3044     071B  0870               	movf	___lwdiv@divisor,w
  3045     071C  02F2               	subwf	___lwdiv@dividend,f
  3046     071D  0871               	movf	___lwdiv@divisor+1,w
  3047     071E  3BF3               	subwfb	___lwdiv@dividend+1,f
  3048     071F                     l811:
  3049     071F  1475               	bsf	___lwdiv@quotient,0
  3050     0720                     l813:
  3051     0720  3001               	movlw	1
  3052     0721                     u245:
  3053     0721  36F1               	lsrf	___lwdiv@divisor+1,f
  3054     0722  0CF0               	rrf	___lwdiv@divisor,f
  3055     0723  0B89               	decfsz	9,f
  3056     0724  2F21               	goto	u245
  3057     0725                     l815:
  3058     0725  3001               	movlw	1
  3059     0726  02F7               	subwf	___lwdiv@counter,f
  3060     0727  1D03               	btfss	3,2
  3061     0728  2F2A               	goto	u251
  3062     0729  2F2B               	goto	u250
  3063     072A                     u251:
  3064     072A  2F0C               	goto	l807
  3065     072B                     u250:
  3066     072B                     l817:
  3067     072B  0876               	movf	___lwdiv@quotient+1,w
  3068     072C  00F1               	movwf	?___lwdiv+1
  3069     072D  0875               	movf	___lwdiv@quotient,w
  3070     072E  00F0               	movwf	?___lwdiv
  3071     072F                     l493:
  3072     072F  0008               	return
  3073     0730                     __end_of___lwdiv:
  3074                           
  3075                           	psect	text5
  3076     0685                     __ptext5:	
  3077 ;; *************** function _detSW0 *****************
  3078 ;; Defined at:
  3079 ;;		line 28 in file "usrTask.c"
  3080 ;; Parameters:    Size  Location     Type
  3081 ;;		None
  3082 ;; Auto vars:     Size  Location     Type
  3083 ;;  detect          1    1[COMMON] unsigned char 
  3084 ;; Return value:  Size  Location     Type
  3085 ;;                  1    wreg      unsigned char 
  3086 ;; Registers used:
  3087 ;;		wreg, status,2
  3088 ;; Tracked objects:
  3089 ;;		On entry : 0/0
  3090 ;;		On exit  : 0/0
  3091 ;;		Unchanged: 0/0
  3092 ;; Data sizes:     COMMON   BANK0   BANK1   BANK2   BANK3   BANK4   BANK5   BANK6   BANK7   BANK8   BANK9  BANK10  BANK1
      +1  BANK12  BANK13  BANK14  BANK15  BANK16  BANK17  BANK18  BANK19  BANK20  BANK21  BANK22  BANK23  BANK24  BANK25  BANK2
      +6  BANK27  BANK28  BANK29  BANK30  BANK31  BANK32  BANK33  BANK34  BANK35  BANK36  BANK37  BANK38  BANK39  BANK40  BANK4
      +1  BANK42  BANK43  BANK44  BANK45  BANK46  BANK47  BANK48  BANK49  BANK50
  3093 ;;      Params:         0       0       0       0       0       0       0       0       0       0       0       0       
      +0       0       0       0       0       0       0       0       0       0       0       0       0       0       0       
      +0       0       0       0       0       0       0       0       0       0       0       0       0       0       0       
      +0       0       0       0       0       0       0       0       0       0
  3094 ;;      Locals:         1       0       0       0       0       0       0       0       0       0       0       0       
      +0       0       0       0       0       0       0       0       0       0       0       0       0       0       0       
      +0       0       0       0       0       0       0       0       0       0       0       0       0       0       0       
      +0       0       0       0       0       0       0       0       0       0
  3095 ;;      Temps:          1       0       0       0       0       0       0       0       0       0       0       0       
      +0       0       0       0       0       0       0       0       0       0       0       0       0       0       0       
      +0       0       0       0       0       0       0       0       0       0       0       0       0       0       0       
      +0       0       0       0       0       0       0       0       0       0
  3096 ;;      Totals:         2       0       0       0       0       0       0       0       0       0       0       0       
      +0       0       0       0       0       0       0       0       0       0       0       0       0       0       0       
      +0       0       0       0       0       0       0       0       0       0       0       0       0       0       0       
      +0       0       0       0       0       0       0       0       0       0
  3097 ;;Total ram usage:        2 bytes
  3098 ;; Hardware stack levels used: 1
  3099 ;; This function calls:
  3100 ;;		Nothing
  3101 ;; This function is called by:
  3102 ;;		_usrTask_Disp7Seg
  3103 ;; This function uses a non-reentrant model
  3104 ;;
  3105                           
  3106     0685                     _detSW0:	
  3107                           ;psect for function _detSW0
  3108                           
  3109     0685                     l843:	
  3110                           ;incstack = 0
  3111                           ; Regs used in _detSW0: [wreg+status,2]
  3112                           
  3113                           
  3114                           ;usrTask.c: 30:     unsigned char detect = 0;
  3115     0685  01F1               	clrf	detSW0@detect
  3116     0686                     l845:
  3117                           
  3118                           ;usrTask.c: 31:     if (PORTBbits.RB0 == 1)
  3119     0686  0140               	movlb	0	; select bank0
  3120     0687  1C0D               	btfss	13,0	;volatile
  3121     0688  2E8A               	goto	u321
  3122     0689  2E8B               	goto	u320
  3123     068A                     u321:
  3124     068A  2E9E               	goto	l853
  3125     068B                     u320:
  3126     068B                     l847:
  3127                           
  3128                           ;usrTask.c: 32:     {;usrTask.c: 33:         _delay((unsigned long)((20)*(4000000/4000.0
      +                          )));
  3129     068B  301A               	movlw	26
  3130     068C  00F0               	movwf	??_detSW0
  3131     068D  30F8               	movlw	248
  3132     068E                     u417:
  3133     068E  0B89               	decfsz	9,f
  3134     068F  2E8E               	goto	u417
  3135     0690  0BF0               	decfsz	??_detSW0,f
  3136     0691  2E8E               	goto	u417
  3137     0692  3200               	nop2
  3138     0693                     l849:
  3139                           
  3140                           ;usrTask.c: 34:         if (PORTBbits.RB0 ==0)
  3141     0693  0140               	movlb	0	; select bank0
  3142     0694  180D               	btfsc	13,0	;volatile
  3143     0695  2E97               	goto	u331
  3144     0696  2E98               	goto	u330
  3145     0697                     u331:
  3146     0697  2E9E               	goto	l853
  3147     0698                     u330:
  3148     0698                     l851:
  3149                           
  3150                           ;usrTask.c: 35:         {;usrTask.c: 36:             detect = 1;
  3151     0698  01F1               	clrf	detSW0@detect
  3152     0699  0AF1               	incf	detSW0@detect,f
  3153     069A                     l47:	
  3154                           ;usrTask.c: 37:             while(PORTBbits.RB0 ==0);
  3155                           
  3156     069A  1C0D               	btfss	13,0	;volatile
  3157     069B  2E9D               	goto	u341
  3158     069C  2E9E               	goto	u340
  3159     069D                     u341:
  3160     069D  2E9A               	goto	l47
  3161     069E                     u340:
  3162     069E                     l853:
  3163                           
  3164                           ;usrTask.c: 40:     return detect;
  3165     069E  0871               	movf	detSW0@detect,w
  3166     069F                     l50:
  3167     069F  0008               	return
  3168     06A0                     __end_of_detSW0:
  3169                           
  3170                           	psect	text6
  3171     067A                     __ptext6:	
  3172 ;; *************** function _initSysPins *****************
  3173 ;; Defined at:
  3174 ;;		line 24 in file "main.c"
  3175 ;; Parameters:    Size  Location     Type
  3176 ;;		None
  3177 ;; Auto vars:     Size  Location     Type
  3178 ;;		None
  3179 ;; Return value:  Size  Location     Type
  3180 ;;                  1    wreg      void 
  3181 ;; Registers used:
  3182 ;;		wreg, status,2
  3183 ;; Tracked objects:
  3184 ;;		On entry : 0/0
  3185 ;;		On exit  : 0/0
  3186 ;;		Unchanged: 0/0
  3187 ;; Data sizes:     COMMON   BANK0   BANK1   BANK2   BANK3   BANK4   BANK5   BANK6   BANK7   BANK8   BANK9  BANK10  BANK1
      +1  BANK12  BANK13  BANK14  BANK15  BANK16  BANK17  BANK18  BANK19  BANK20  BANK21  BANK22  BANK23  BANK24  BANK25  BANK2
      +6  BANK27  BANK28  BANK29  BANK30  BANK31  BANK32  BANK33  BANK34  BANK35  BANK36  BANK37  BANK38  BANK39  BANK40  BANK4
      +1  BANK42  BANK43  BANK44  BANK45  BANK46  BANK47  BANK48  BANK49  BANK50
  3188 ;;      Params:         0       0       0       0       0       0       0       0       0       0       0       0       
      +0       0       0       0       0       0       0       0       0       0       0       0       0       0       0       
      +0       0       0       0       0       0       0       0       0       0       0       0       0       0       0       
      +0       0       0       0       0       0       0       0       0       0
  3189 ;;      Locals:         0       0       0       0       0       0       0       0       0       0       0       0       
      +0       0       0       0       0       0       0       0       0       0       0       0       0       0       0       
      +0       0       0       0       0       0       0       0       0       0       0       0       0       0       0       
      +0       0       0       0       0       0       0       0       0       0
  3190 ;;      Temps:          0       0       0       0       0       0       0       0       0       0       0       0       
      +0       0       0       0       0       0       0       0       0       0       0       0       0       0       0       
      +0       0       0       0       0       0       0       0       0       0       0       0       0       0       0       
      +0       0       0       0       0       0       0       0       0       0
  3191 ;;      Totals:         0       0       0       0       0       0       0       0       0       0       0       0       
      +0       0       0       0       0       0       0       0       0       0       0       0       0       0       0       
      +0       0       0       0       0       0       0       0       0       0       0       0       0       0       0       
      +0       0       0       0       0       0       0       0       0       0
  3192 ;;Total ram usage:        0 bytes
  3193 ;; Hardware stack levels used: 1
  3194 ;; This function calls:
  3195 ;;		Nothing
  3196 ;; This function is called by:
  3197 ;;		_main
  3198 ;; This function uses a non-reentrant model
  3199 ;;
  3200                           
  3201     067A                     _initSysPins:	
  3202                           ;psect for function _initSysPins
  3203                           
  3204     067A                     l775:	
  3205                           ;incstack = 0
  3206                           ; Regs used in _initSysPins: [wreg+status,2]
  3207                           
  3208                           
  3209                           ;main.c: 26:     ANSELA=0b00000000;
  3210     067A  017E               	movlb	62	; select bank62
  3211     067B  01B8               	clrf	56	;volatile
  3212                           
  3213                           ;main.c: 27:     ANSELB=0b00000000;
  3214     067C  01C3               	clrf	67	;volatile
  3215                           
  3216                           ;main.c: 28:     ANSELC=0b00000000;
  3217     067D  01CE               	clrf	78	;volatile
  3218     067E                     l777:
  3219                           
  3220                           ;main.c: 29:     TRISA=0b11001111;
  3221     067E  30CF               	movlw	207
  3222     067F  0140               	movlb	0	; select bank0
  3223     0680  0091               	movwf	17	;volatile
  3224     0681                     l779:
  3225                           
  3226                           ;main.c: 30:     TRISB=0b11111111;
  3227     0681  30FF               	movlw	255
  3228     0682  0092               	movwf	18	;volatile
  3229                           
  3230                           ;main.c: 31:     TRISC=0b00000000;
  3231     0683  0193               	clrf	19	;volatile
  3232     0684                     l27:
  3233     0684  0008               	return
  3234     0685                     __end_of_initSysPins:
  3235     007E                     btemp	set	126	;btemp
  3236     007E                     wtemp0	set	126
  3237                           
  3238                           	psect	idloc
  3239                           
  3240                           ;Config register IDLOC0 @ 0x8000
  3241                           ;	unspecified, using default values
  3242     8000                     	org	32768
  3243     8000  3FFF               	dw	16383
  3244                           
  3245                           ;Config register IDLOC1 @ 0x8001
  3246                           ;	unspecified, using default values
  3247     8001                     	org	32769
  3248     8001  3FFF               	dw	16383
  3249                           
  3250                           ;Config register IDLOC2 @ 0x8002
  3251                           ;	unspecified, using default values
  3252     8002                     	org	32770
  3253     8002  3FFF               	dw	16383
  3254                           
  3255                           ;Config register IDLOC3 @ 0x8003
  3256                           ;	unspecified, using default values
  3257     8003                     	org	32771
  3258     8003  3FFF               	dw	16383
  3259                           
  3260                           	psect	config
  3261                           
  3262                           ;Config register CONFIG1 @ 0x8007
  3263                           ;	External Oscillator mode selection bits
  3264                           ;	FEXTOSC = XT, XT (crystal oscillator) above 500kHz, below 4MHz; PFM set to medium powe
      +                          r
  3265                           ;	Power-up default value for COSC bits
  3266                           ;	RSTOSC = 0x7, unprogrammed default
  3267                           ;	Clock Out Enable bit
  3268                           ;	CLKOUTEN = 0x1, unprogrammed default
  3269                           ;	Clock Switch Enable bit
  3270                           ;	CSWEN = 0x1, unprogrammed default
  3271                           ;	Fail-Safe Clock Monitor Enable bit
  3272                           ;	FCMEN = 0x1, unprogrammed default
  3273     8007                     	org	32775
  3274     8007  3FF9               	dw	16377
  3275                           
  3276                           ;Config register CONFIG2 @ 0x8008
  3277                           ;	unspecified, using default values
  3278                           ;	Master Clear Enable bit
  3279                           ;	MCLRE = 0x1, unprogrammed default
  3280                           ;	Power-up Timer Enable bit
  3281                           ;	PWRTE = 0x1, unprogrammed default
  3282                           ;	Low-Power BOR enable bit
  3283                           ;	LPBOREN = 0x1, unprogrammed default
  3284                           ;	Brown-out reset enable bits
  3285                           ;	BOREN = 0x3, unprogrammed default
  3286                           ;	Brown-out Reset Voltage Selection
  3287                           ;	BORV = 0x1, unprogrammed default
  3288                           ;	Zero-cross detect disable
  3289                           ;	ZCD = 0x1, unprogrammed default
  3290                           ;	Peripheral Pin Select one-way control
  3291                           ;	PPS1WAY = 0x1, unprogrammed default
  3292                           ;	Stack Overflow/Underflow Reset Enable bit
  3293                           ;	STVREN = 0x1, unprogrammed default
  3294                           ;	Background Debugger
  3295                           ;	DEBUG = 0x1, unprogrammed default
  3296     8008                     	org	32776
  3297     8008  3FFF               	dw	16383
  3298                           
  3299                           ;Config register CONFIG3 @ 0x8009
  3300                           ;	WDT Period Select bits
  3301                           ;	WDTCPS = 0x1F, unprogrammed default
  3302                           ;	WDT operating mode
  3303                           ;	WDTE = OFF, WDT Disabled, SWDTEN is ignored
  3304                           ;	WDT Window Select bits
  3305                           ;	WDTCWS = 0x7, unprogrammed default
  3306                           ;	WDT input clock selector
  3307                           ;	WDTCCS = 0x7, unprogrammed default
  3308     8009                     	org	32777
  3309     8009  3F9F               	dw	16287
  3310                           
  3311                           ;Config register CONFIG4 @ 0x800A
  3312                           ;	UserNVM self-write protection bits
  3313                           ;	WRT = 0x3, unprogrammed default
  3314                           ;	Scanner Enable bit
  3315                           ;	SCANE = 0x1, unprogrammed default
  3316                           ;	Low Voltage Programming Enable bit
  3317                           ;	LVP = OFF, High Voltage on MCLR/Vpp must be used for programming
  3318     800A                     	org	32778
  3319     800A  1FFF               	dw	8191
  3320                           
  3321                           ;Config register CONFIG5 @ 0x800B
  3322                           ;	unspecified, using default values
  3323                           ;	UserNVM Program memory code protection bit
  3324                           ;	CP = 0x1, unprogrammed default
  3325                           ;	DataNVM code protection bit
  3326                           ;	CPD = 0x1, unprogrammed default
  3327     800B                     	org	32779
  3328     800B  3FFF               	dw	16383

Data Sizes:
    Strings     0
    Constant    11
    Data        0
    BSS         1
    Persistent  32
    Stack       0

Auto Spaces:
    Space          Size  Autos    Used
    COMMON           14     14      14
    BANK0            80     13      14
    BANK1            80      0       0
    BANK2            80      0       0
    BANK3            80      0       0
    BANK4            80      0       0
    BANK5            80      0       0
    BANK6            80      0       0
    BANK7            80      0       0
    BANK8            80      0       0
    BANK9            80      0       0
    BANK10           80      0       0
    BANK11           80      0       0
    BANK12           80      0       0
    BANK13           80      0       0
    BANK14           80      0       0
    BANK15           80      0       0
    BANK16           80      0       0
    BANK17           80      0       0
    BANK18           80      0       0
    BANK19           80      0       0
    BANK20           80      0       0
    BANK21           80      0       0
    BANK22           80      0       0
    BANK23           80      0       0
    BANK24           80      0       0
    BANK25           80      0       0
    BANK26           80      0       0
    BANK27           80      0       0
    BANK28           80      0       0
    BANK29           80      0       0
    BANK30           80      0       0
    BANK31           80      0       0
    BANK32           80      0       0
    BANK33           80      0       0
    BANK34           80      0       0
    BANK35           80      0       0
    BANK36           80      0       0
    BANK37           80      0       0
    BANK38           80      0       0
    BANK39           80      0       0
    BANK40           80      0       0
    BANK41           80      0       0
    BANK42           80      0       0
    BANK43           80      0       0
    BANK44           80      0       0
    BANK45           80      0       0
    BANK46           80      0       0
    BANK47           80      0       0
    BANK48           80      0       0
    BANK49           80      0       0
    BANK50           80      0       0

Pointer List with Targets:

    None.

Critical Paths under _main in COMMON

    _seg_DispAll->___lwmod
    ___lwmod->___lwdiv

Critical Paths under _main in BANK0

    _main->_usrTask_Disp7Seg
    _usrTask_Disp7Seg->_seg_DispAll

Critical Paths under _main in BANK1

    None.

Critical Paths under _main in BANK2

    None.

Critical Paths under _main in BANK3

    None.

Critical Paths under _main in BANK4

    None.

Critical Paths under _main in BANK5

    None.

Critical Paths under _main in BANK6

    None.

Critical Paths under _main in BANK7

    None.

Critical Paths under _main in BANK8

    None.

Critical Paths under _main in BANK9

    None.

Critical Paths under _main in BANK10

    None.

Critical Paths under _main in BANK11

    None.

Critical Paths under _main in BANK12

    None.

Critical Paths under _main in BANK13

    None.

Critical Paths under _main in BANK14

    None.

Critical Paths under _main in BANK15

    None.

Critical Paths under _main in BANK16

    None.

Critical Paths under _main in BANK17

    None.

Critical Paths under _main in BANK18

    None.

Critical Paths under _main in BANK19

    None.

Critical Paths under _main in BANK20

    None.

Critical Paths under _main in BANK21

    None.

Critical Paths under _main in BANK22

    None.

Critical Paths under _main in BANK23

    None.

Critical Paths under _main in BANK24

    None.

Critical Paths under _main in BANK25

    None.

Critical Paths under _main in BANK26

    None.

Critical Paths under _main in BANK27

    None.

Critical Paths under _main in BANK28

    None.

Critical Paths under _main in BANK29

    None.

Critical Paths under _main in BANK30

    None.

Critical Paths under _main in BANK31

    None.

Critical Paths under _main in BANK32

    None.

Critical Paths under _main in BANK33

    None.

Critical Paths under _main in BANK34

    None.

Critical Paths under _main in BANK35

    None.

Critical Paths under _main in BANK36

    None.

Critical Paths under _main in BANK37

    None.

Critical Paths under _main in BANK38

    None.

Critical Paths under _main in BANK39

    None.

Critical Paths under _main in BANK40

    None.

Critical Paths under _main in BANK41

    None.

Critical Paths under _main in BANK42

    None.

Critical Paths under _main in BANK43

    None.

Critical Paths under _main in BANK44

    None.

Critical Paths under _main in BANK45

    None.

Critical Paths under _main in BANK46

    None.

Critical Paths under _main in BANK47

    None.

Critical Paths under _main in BANK48

    None.

Critical Paths under _main in BANK49

    None.

Critical Paths under _main in BANK50

    None.

Call Graph Tables:

 ---------------------------------------------------------------------------------
 (Depth) Function   	        Calls       Base Space   Used Autos Params    Refs
 ---------------------------------------------------------------------------------
 (0) _main                                                 0     0      0    1665
                        _initSysPins
                   _usrTask_Disp7Seg
 ---------------------------------------------------------------------------------
 (1) _usrTask_Disp7Seg                                     2     2      0    1665
                                             11 BANK0      2     2      0
                             _detSW0
                        _seg_DispAll
 ---------------------------------------------------------------------------------
 (2) _seg_DispAll                                         13    11      2    1641
                                              0 BANK0     11     9      2
                            ___lwdiv
                            ___lwmod
 ---------------------------------------------------------------------------------
 (3) ___lwmod                                              6     2      4     767
                                              8 COMMON     6     2      4
                            ___lwdiv (ARG)
 ---------------------------------------------------------------------------------
 (3) ___lwdiv                                              8     4      4     618
                                              0 COMMON     8     4      4
 ---------------------------------------------------------------------------------
 (2) _detSW0                                               2     2      0      24
                                              0 COMMON     2     2      0
 ---------------------------------------------------------------------------------
 (1) _initSysPins                                          0     0      0       0
 ---------------------------------------------------------------------------------
 Estimated maximum stack depth 3
 ---------------------------------------------------------------------------------

 Call Graph Graphs:

 _main (ROOT)
   _initSysPins
   _usrTask_Disp7Seg
     _detSW0
     _seg_DispAll
       ___lwdiv
       ___lwmod
         ___lwdiv (ARG)

 Address spaces:
Name               Size   Autos  Total    Cost      Usage
BIGRAM             FF0      0       0       0        0.0%
EEDATA             100      0       0       0        0.0%
NULL                 0      0       0       0        0.0%
CODE                 0      0       0       0        0.0%
BITCOMMON            E      0       0       1        0.0%
BITSFR0              0      0       0       1        0.0%
SFR0                 0      0       0       1        0.0%
COMMON               E      E       E       2      100.0%
BITSFR1              0      0       0       2        0.0%
SFR1                 0      0       0       2        0.0%
BITSFR2              0      0       0       3        0.0%
SFR2                 0      0       0       3        0.0%
STACK                0      0       0       3        0.0%
BITBANK0            50      0       0       4        0.0%
BITSFR3              0      0       0       4        0.0%
SFR3                 0      0       0       4        0.0%
BANK0               50      D       E       5       17.5%
BITSFR4              0      0       0       5        0.0%
SFR4                 0      0       0       5        0.0%
BITBANK1            50      0       0       6        0.0%
BITSFR5              0      0       0       6        0.0%
SFR5                 0      0       0       6        0.0%
BANK1               50      0       0       7        0.0%
BITSFR6              0      0       0       7        0.0%
SFR6                 0      0       0       7        0.0%
BITBANK2            50      0       0       8        0.0%
BITSFR7              0      0       0       8        0.0%
SFR7                 0      0       0       8        0.0%
BANK2               50      0       0       9        0.0%
BITSFR8              0      0       0       9        0.0%
SFR8                 0      0       0       9        0.0%
BITBANK3            50      0       0      10        0.0%
BITSFR9              0      0       0      10        0.0%
SFR9                 0      0       0      10        0.0%
BANK3               50      0       0      11        0.0%
BITSFR10             0      0       0      11        0.0%
SFR10                0      0       0      11        0.0%
BITBANK4            50      0       0      12        0.0%
BITSFR11             0      0       0      12        0.0%
SFR11                0      0       0      12        0.0%
BANK4               50      0       0      13        0.0%
BITSFR12             0      0       0      13        0.0%
SFR12                0      0       0      13        0.0%
BITBANK5            50      0       0      14        0.0%
BITSFR13             0      0       0      14        0.0%
SFR13                0      0       0      14        0.0%
BANK5               50      0       0      15        0.0%
BITSFR14             0      0       0      15        0.0%
SFR14                0      0       0      15        0.0%
BITBANK6            50      0       0      16        0.0%
BITSFR15             0      0       0      16        0.0%
SFR15                0      0       0      16        0.0%
BANK6               50      0       0      17        0.0%
BITSFR16             0      0       0      17        0.0%
SFR16                0      0       0      17        0.0%
BITBANK7            50      0       0      18        0.0%
BITSFR17             0      0       0      18        0.0%
SFR17                0      0       0      18        0.0%
BANK7               50      0       0      19        0.0%
BITSFR18             0      0       0      19        0.0%
SFR18                0      0       0      19        0.0%
BITBANK8            50      0       0      20        0.0%
BITSFR19             0      0       0      20        0.0%
SFR19                0      0       0      20        0.0%
BANK8               50      0       0      21        0.0%
BITSFR20             0      0       0      21        0.0%
SFR20                0      0       0      21        0.0%
BITBANK9            50      0       0      22        0.0%
BITSFR21             0      0       0      22        0.0%
SFR21                0      0       0      22        0.0%
BANK9               50      0       0      23        0.0%
BITSFR22             0      0       0      23        0.0%
SFR22                0      0       0      23        0.0%
BITBANK10           50      0       0      24        0.0%
BITSFR23             0      0       0      24        0.0%
SFR23                0      0       0      24        0.0%
BANK10              50      0       0      25        0.0%
BITSFR24             0      0       0      25        0.0%
SFR24                0      0       0      25        0.0%
BITBANK11           50      0       0      26        0.0%
BITSFR25             0      0       0      26        0.0%
SFR25                0      0       0      26        0.0%
BANK11              50      0       0      27        0.0%
BITSFR26             0      0       0      27        0.0%
SFR26                0      0       0      27        0.0%
BITSFR27             0      0       0      28        0.0%
SFR27                0      0       0      28        0.0%
ABS                  0      0      1C      28        0.0%
BITBANK12           50      0       0      29        0.0%
BITSFR28             0      0       0      29        0.0%
SFR28                0      0       0      29        0.0%
BANK12              50      0       0      30        0.0%
BITSFR29             0      0       0      30        0.0%
SFR29                0      0       0      30        0.0%
BITBANK13           50      0       0      31        0.0%
BITSFR30             0      0       0      31        0.0%
SFR30                0      0       0      31        0.0%
BANK13              50      0       0      32        0.0%
BITSFR31             0      0       0      32        0.0%
SFR31                0      0       0      32        0.0%
BITBANK14           50      0       0      33        0.0%
BITSFR32             0      0       0      33        0.0%
SFR32                0      0       0      33        0.0%
BANK14              50      0       0      34        0.0%
BITSFR33             0      0       0      34        0.0%
SFR33                0      0       0      34        0.0%
BITBANK15           50      0       0      35        0.0%
BITSFR34             0      0       0      35        0.0%
SFR34                0      0       0      35        0.0%
BANK15              50      0       0      36        0.0%
BITSFR35             0      0       0      36        0.0%
SFR35                0      0       0      36        0.0%
BITBANK16           50      0       0      37        0.0%
BITSFR36             0      0       0      37        0.0%
SFR36                0      0       0      37        0.0%
BANK16              50      0       0      38        0.0%
BITSFR37             0      0       0      38        0.0%
SFR37                0      0       0      38        0.0%
BITBANK17           50      0       0      39        0.0%
BITSFR38             0      0       0      39        0.0%
SFR38                0      0       0      39        0.0%
BANK17              50      0       0      40        0.0%
BITSFR39             0      0       0      40        0.0%
SFR39                0      0       0      40        0.0%
BITBANK18           50      0       0      41        0.0%
BITSFR40             0      0       0      41        0.0%
SFR40                0      0       0      41        0.0%
BANK18              50      0       0      42        0.0%
BITSFR41             0      0       0      42        0.0%
SFR41                0      0       0      42        0.0%
BITBANK19           50      0       0      43        0.0%
BITSFR42             0      0       0      43        0.0%
SFR42                0      0       0      43        0.0%
BANK19              50      0       0      44        0.0%
BITSFR43             0      0       0      44        0.0%
SFR43                0      0       0      44        0.0%
BITBANK20           50      0       0      45        0.0%
BITSFR44             0      0       0      45        0.0%
SFR44                0      0       0      45        0.0%
BANK20              50      0       0      46        0.0%
BITSFR45             0      0       0      46        0.0%
SFR45                0      0       0      46        0.0%
BITBANK21           50      0       0      47        0.0%
BITSFR46             0      0       0      47        0.0%
SFR46                0      0       0      47        0.0%
BANK21              50      0       0      48        0.0%
BITSFR47             0      0       0      48        0.0%
SFR47                0      0       0      48        0.0%
BITBANK22           50      0       0      49        0.0%
BITSFR48             0      0       0      49        0.0%
SFR48                0      0       0      49        0.0%
BANK22              50      0       0      50        0.0%
BITSFR49             0      0       0      50        0.0%
SFR49                0      0       0      50        0.0%
BITBANK23           50      0       0      51        0.0%
BITSFR50             0      0       0      51        0.0%
SFR50                0      0       0      51        0.0%
BANK23              50      0       0      52        0.0%
BITSFR51             0      0       0      52        0.0%
SFR51                0      0       0      52        0.0%
BITBANK24           50      0       0      53        0.0%
BITSFR52             0      0       0      53        0.0%
SFR52                0      0       0      53        0.0%
BANK24              50      0       0      54        0.0%
BITSFR53             0      0       0      54        0.0%
SFR53                0      0       0      54        0.0%
BITBANK25           50      0       0      55        0.0%
BITSFR54             0      0       0      55        0.0%
SFR54                0      0       0      55        0.0%
BANK25              50      0       0      56        0.0%
BITSFR55             0      0       0      56        0.0%
SFR55                0      0       0      56        0.0%
BITBANK26           50      0       0      57        0.0%
BITSFR56             0      0       0      57        0.0%
SFR56                0      0       0      57        0.0%
BANK26              50      0       0      58        0.0%
BITSFR57             0      0       0      58        0.0%
SFR57                0      0       0      58        0.0%
BITSFR58             0      0       0      59        0.0%
SFR58                0      0       0      59        0.0%
DATA                 0      0      1C      59        0.0%
BITBANK27           50      0       0      60        0.0%
BITSFR59             0      0       0      60        0.0%
SFR59                0      0       0      60        0.0%
BANK27              50      0       0      61        0.0%
BITSFR60             0      0       0      61        0.0%
SFR60                0      0       0      61        0.0%
BITBANK28           50      0       0      62        0.0%
BITSFR61             0      0       0      62        0.0%
SFR61                0      0       0      62        0.0%
BANK28              50      0       0      63        0.0%
BITSFR62             0      0       0      63        0.0%
SFR62                0      0       0      63        0.0%
BITBANK29           50      0       0      64        0.0%
BITSFR63             0      0       0      64        0.0%
SFR63                0      0       0      64        0.0%
BANK29              50      0       0      65        0.0%
BITBANK30           50      0       0      66        0.0%
BANK30              50      0       0      67        0.0%
BITBANK31           50      0       0      68        0.0%
BANK31              50      0       0      69        0.0%
BITBANK32           50      0       0      70        0.0%
BANK32              50      0       0      71        0.0%
BITBANK33           50      0       0      72        0.0%
BANK33              50      0       0      73        0.0%
BITBANK34           50      0       0      74        0.0%
BANK34              50      0       0      75        0.0%
BITBANK35           50      0       0      76        0.0%
BANK35              50      0       0      77        0.0%
BITBANK36           50      0       0      78        0.0%
BANK36              50      0       0      79        0.0%
BITBANK37           50      0       0      80        0.0%
BANK37              50      0       0      81        0.0%
BITBANK38           50      0       0      82        0.0%
BANK38              50      0       0      83        0.0%
BITBANK39           50      0       0      84        0.0%
BANK39              50      0       0      85        0.0%
BITBANK40           50      0       0      86        0.0%
BANK40              50      0       0      87        0.0%
BITBANK41           50      0       0      88        0.0%
BANK41              50      0       0      89        0.0%
BITBANK42           50      0       0      90        0.0%
BANK42              50      0       0      91        0.0%
BITBANK43           50      0       0      92        0.0%
BANK43              50      0       0      93        0.0%
BITBANK44           50      0       0      94        0.0%
BANK44              50      0       0      95        0.0%
BITBANK45           50      0       0      96        0.0%
BANK45              50      0       0      97        0.0%
BITBANK46           50      0       0      98        0.0%
BANK46              50      0       0      99        0.0%
BITBANK47           50      0       0     100        0.0%
BANK47              50      0       0     101        0.0%
BITBANK48           50      0       0     102        0.0%
BANK48              50      0       0     103        0.0%
BITBANK49           50      0       0     104        0.0%
BANK49              50      0       0     105        0.0%
BITBANK50           50      0       0     106        0.0%
BANK50              50      0       0     107        0.0%


Microchip Technology PIC Macro Assembler V2.41 build 20230208172133 
Symbol Table                                                                                   Mon Jul 17 14:29:20 2023

                      l50 069F                        l42 06BF                        l27 0684  
                      l61 07FA                        l47 069A                       l503 06F3  
                     l801 06FF                       l811 071F                       l803 0704  
                     l493 072F                       l813 0720                       l805 0708  
                     l821 06C0                       l901 06A8                       l815 0725  
                     l807 070C                       l831 06D6                       l823 06C6  
                     l903 06AD                       l911 0674                       l809 071B  
                     l817 072B                       l833 06E0                       l825 06C9  
                     l905 06B3                       l851 0698                       l843 0685  
                     l835 06E4                       l827 06CE                       l907 06B4  
                     l853 069E                       l845 0686                       l837 06E9  
                     l829 06D2                       l861 0793                       l909 0671  
                     l775 067A                       l847 068B                       l839 06EF  
                     l871 07AD                       l863 0794                       l777 067E  
                     l849 0693                       l881 07C7                       l873 07AE  
                     l865 079D                       l857 0730                       l779 0681  
                     l795 06F4                       l891 07E1                       l883 07C8  
                     l875 07B7                       l867 07A5                       l859 0792  
                     l797 06F6                       l893 07E2                       l885 07D1  
                     l877 07BF                       l869 07AC                       l799 06FC  
                     l895 07EB                       l887 07D9                       l879 07C6  
                     l897 07F3                       l889 07E0                       l899 06A0  
                     u210 070C                       u211 070B                       u205 0700  
                     u230 071B                       u310 06EF                       u231 071A  
                     u311 06EE                       u320 068B                       u321 068A  
                     u225 070D                       u305 06E5                       u330 0698  
                     u250 072B                       u331 0697                       u251 072A  
                     u235 0717                       u340 069E                       u260 06C6  
                     u341 069D                       u245 0721                       u261 06C5  
                     u190 06FC                       u350 06A8                       u191 06FB  
                     u407 07EF                       u351 06A7                       u280 06D6  
                     u360 06B3                       u417 068E                       u281 06D5  
                     u361 06B2                       u290 06E0                       u291 06DF  
                     u275 06CA                       u295 06DC                       u377 07A1  
                     u387 07BB                       u397 07D5                       wreg 0009  
                    _main 0671                      fsr0h 0005                      indf0 0000  
                    fsr0l 0004                      btemp 007E                      start 0002  
                   ?_main 0070              ?_initSysPins 0070           __end_of___lwdiv 0730  
         __end_of___lwmod 06F4                     _PORTC 000E                     _TRISA 0011  
                   _TRISB 0012                     _TRISC 0013              ?_seg_DispAll 0020  
                   status 0003                     wtemp0 007E           __initialization 07FB  
            __end_of_main 067A                    ??_main 007E                    _ANSELA 1F38  
                  _ANSELB 1F43                    _ANSELC 1F4E                    _detSW0 0685  
               ??___lwdiv 0074                 ??___lwmod 007C          __end_of_segTable 080B  
 __end_of__initialization 07FD            __pcstackCOMMON 0070                __pbssBANK0 002D  
              __pmaintext 0671                   ?_detSW0 0070                   ___lwdiv 06F4  
                 ___lwmod 06C0                   __ptext1 06A0                   __ptext2 0730  
                 __ptext3 06C0                   __ptext4 06F4                   __ptext5 0685  
                 __ptext6 067A      end_of_initialization 07FD          _usrTask_Disp7Seg 06A0  
               _PORTAbits 000C                 _PORTBbits 000D              detSW0@detect 0071  
          __end_of_detSW0 06A0       start_initialization 07FB                  ??_detSW0 0070  
           ??_initSysPins 0070                 ___latbits 0004             __pcstackBANK0 0020  
           ??_seg_DispAll 0022         seg_DispAll@result 0020          ___lwdiv@dividend 0072  
                ?___lwdiv 0070                  ?___lwmod 0078       __end_of_initSysPins 0685  
        ___lwdiv@quotient 0075  __end_of_usrTask_Disp7Seg 06C0       __end_of_seg_DispAll 07FB  
             _initSysPins 067A           ___lwdiv@divisor 0070           ___lwdiv@counter 0077  
                _btnCount 002D               _seg_DispAll 0730                  _segTable 0800  
         seg_DispAll@dig0 0023           seg_DispAll@dig1 0025           seg_DispAll@dig2 0027  
         seg_DispAll@dig3 0029          ___lwmod@dividend 007A             __pstringtext1 0800  
         ___lwmod@divisor 0078           ___lwmod@counter 007D         ?_usrTask_Disp7Seg 0070  
      ??_usrTask_Disp7Seg 002B  
